(lp1
(igadma.demographic_model
Demographic_model
p2
(dp3
S'lower_bound'
p4
(lp5
F0.001
aF0.001
aF0
aF0
asS'sfs'
p6
cmoments.Spectrum_mod
Spectrum_unpickler
p7
(cnumpy.core.multiarray
_reconstruct
p8
(cnumpy
ndarray
p9
(I0
tS'b'
tRp10
(I1
(I21
tcnumpy
dtype
p11
(S'f8'
I0
I1
tRp12
(I3
S'<'
NNNI-1
I-1
I0
tbI00
S'6\xee\xa4$C\x14@A+|:v\xc8\xec\xbf@d\x87\xc6*\x85d\xb1@2\x1e\xaeO\xa1\x18\xa9@\xdfn/\xae?@\xa4@\xae\x97\xc1\x01\xe1W\xa1@\xbbh\xd0\x9f\x07\xcf\x9e@D\x8c\xe4\xa3\xbc\t\x9c@m\xda\xcdH\x97\xf5\x99@\xe9v\xde\x03\x8bW\x98@\x16\xfe\x03\xe8)\x0c\x97@\x9f\xd2\x050\xe8\xfc\x95@,\xe7\xf9\x02\xbe\x1a\x95@\xf5\x82\xf8{C[\x94@\xbd=\xed\xd2\t\xb7\x93@\xe5\xe4P\xa8\x9d(\x93@^\x91~t\xe8\xab\x92@f\xf5\xd9\xed\xc9=\x92@\xa4\xca>\xa2\xd3\xdb\x91@G1\x17*\x1a\x84\x91@|\x90\x93\xf6\xbeu\xff@'
tbg8
(g9
(I0
tS'b'
tRp13
(I1
(I21
tg11
(S'b1'
I0
I1
tRp14
(I3
S'|'
NNNI-1
I-1
I0
tbI00
S'\x01\x00\x00\x00\x00\x00\x00\x00\x00\x00\x00\x00\x00\x00\x00\x00\x00\x00\x00\x00\x01'
tbI00
NNtRp15
sS'is_custom_model'
p16
I01
sS'fitness_func_value'
p17
cnumpy.core.multiarray
scalar
p18
(g12
S'04\xa0X1\x93x@'
tRp19
sS'popt'
p20
(lp21
g18
(g12
S'F\xa5F7\x18\xcb-@'
tRp22
ag18
(g12
S'ju\xdc\x1c\x9cW\xc9?'
tRp23
ag18
(g12
S'\x00\x00\x00\x00\x00\x00\x14@'
tRp24
ag18
(g12
S'\xd4Z\x9a\xe8o\x83\xe6?'
tRp25
asS'cur_structure'
p26
NsS'popt_len'
p27
I4
sS'claic_score'
p28
g18
(g12
S'W\x07\x9fX1\x93\x88@'
tRp29
sS'split_2_pos'
p30
NsS'info'
p31
S'c'
sS'param_ids'
p32
c__builtin__
xrange
p33
(I0
I0
I1
tRp34
sS'upper_bound'
p35
(lp36
F100
aF100
aF5
aF5
asS'split_1_pos'
p37
NsS'number_of_populations'
p38
I1
sS'params'
p39
(igadma.options
Options_storage
p40
(dp41
S'only_models'
p42
NsS'multinom_mutate'
p43
I00
sS'const_for_mut_strength'
p44
F1.01
sS'frac_of_old_models'
p45
F0.20000000000000001
sS'resume_dir'
p46
NsS'linked_snp'
p47
I01
sS'multinom'
p48
I01
sS'relative_params'
p49
I00
sS'max_N'
p50
F100
sS'fracs'
p51
(lp52
F0.20000000000000001
aF0.29999999999999999
aF0.29999999999999999
asS'pil_available'
p53
I01
sS'no_mig'
p54
I00
sS'size_of_generation'
p55
I10
sS'dadi_pts'
p56
(lp57
g18
(g11
(S'i8'
I0
I1
tRp58
(I3
S'<'
NNNI-1
I-1
I0
tbS'\x14\x00\x00\x00\x00\x00\x00\x00'
tRp59
ag18
(g58
S'\x1e\x00\x00\x00\x00\x00\x00\x00'
tRp60
ag18
(g58
S'(\x00\x00\x00\x00\x00\x00\x00'
tRp61
asS'gen_time_units'
p62
F1
sg4
g5
sS'optimize_name'
p63
S'optimize_powell'
p64
sS'frac_of_mutated_models'
p65
F0.29999999999999999
sS'initial_structure'
p66
NsS'only_sudden'
p67
I00
sS'std'
p68
NsS'processes'
p69
I10
sS'split_2_lim'
p70
NsS'frac_of_crossed_models'
p71
F0.29999999999999999
sS'max_T'
p72
F5
sS'pop_labels'
p73
(lp74
S'pop 0'
p75
asS'model_func_file'
p76
S'/mnt/ssd1/enoskova/simulations/1_simbot/demographic_model.py'
p77
sS'distribution'
p78
S'normal'
p79
sS'gen_time'
p80
NsS'min_T'
p81
F0
sS'max_M'
p82
F10
sS'mutation_strength'
p83
F0.20000000000000001
sS'min_M'
p84
F0
sS'min_N'
p85
F0.001
sS'ls_epsilon'
p86
F0.001
sS'ls_flush_delay'
p87
F0.5
sS'ls_maxiter'
p88
NsS'time_for_print'
p89
I1
sg38
I1
sS'output_dir'
p90
S'/mnt/ssd1/enoskova/simulations/1_simbot/results/gadma/out_0_custom'
p91
sS'epsilon'
p92
F0.01
sS'test'
p93
I00
sS'theta'
p94
F2
sS'model_func'
p95
cmodule
model_func
p96
sS'ns'
p97
g8
(g9
(I0
tS'b'
tRp98
(I1
(I1
tg11
(S'i8'
I0
I1
tRp99
(I3
S'<'
NNNI-1
I-1
I0
tbI00
S'\x14\x00\x00\x00\x00\x00\x00\x00'
tbsS'hc_mutation_rate'
p100
NsS'hc_stop_iter'
p101
NsS'moments_scenario'
p102
I01
sS'draw_iter'
p103
I0
sS'input_file'
p104
S'/mnt/ssd1/enoskova/simulations/1_simbot/simulated_data/00.fs'
p105
sS'random_N_A'
p106
I01
sS'split_1_lim'
p107
NsS'ls_gtol'
p108
F1.0000000000000001e-05
sS'p_ids'
p109
g8
(g9
(I0
tS'b'
tRp110
(I1
(I4
tg11
(S'S1'
I0
I1
tRp111
(I3
S'|'
NNNI1
I1
I0
tbI00
S'nntt'
tbsS'hc_const_for_mutation_rate'
p112
NsS'multinom_cross'
p113
I00
sS'moments_available'
p114
I01
sS'ls_verbose'
p115
Nsg35
g36
sS'stop_iter'
p116
I100
sS'const_for_mut_rate'
p117
F1.02
sS'input_data'
p118
cdadi.Spectrum_mod
Spectrum_unpickler
p119
(g8
(g9
(I0
tS'b'
tRp120
(I1
(I21
tg11
(S'f8'
I0
I1
tRp121
(I3
S'<'
NNNI-1
I-1
I0
tbI00
S"\x06\xf3\x0cX\xd0\xaa\xe1@\x8b9\x95\xe8\xeel\xc2@9\xfd\xa6r\x82&\xac@\x0eg\xe2\x151'\xa4@l\xa5\x83\xb5(\xb5\xa1@\xe2g\x0c\xb8\xf6q\xa0@K\xfc\xfd\xff*\x00\x9f@\x8d\xae~/\xaeX\x9d@\xcb\xcf_\x11\r\xd3\x9b@\xfej\xf7\xc9Eg\x9a@\x84\x17\x9ao\x1b\x12\x99@\xb1x\xe8>\xae\xd1\x97@e\xc0]f\x96\xa4\x96@\xbd\xf0\x93F\xa2\x89\x95@WWXK\xc0\x7f\x94@$\x99M\x86\xf5\x85\x93@\xf2\x96\xa9\xb3X\x9b\x92@6,L'\x0f\xbf\x91@$>\xef\xbaJ\xf0\x90@\xd0\xb5\xdcUH.\x90@8\x97\xde5\to\xb5@"
tbg8
(g9
(I0
tS'b'
tRp122
(I1
(I21
tg11
(S'b1'
I0
I1
tRp123
(I3
S'|'
NNNI-1
I-1
I0
tbI00
S'\x01\x00\x00\x00\x00\x00\x00\x00\x00\x00\x00\x00\x00\x00\x00\x00\x00\x00\x00\x00\x01'
tbI00
g74
NtRp124
sS'mutation_rate'
p125
F0.20000000000000001
sS'matplotlib_available'
p126
I01
sS'code_iter'
p127
I0
sS'repeats'
p128
I50
sS'final_structure'
p129
NsS'silence'
p130
I01
sbsS'optimal_theta'
p131
g18
(g12
S'\x94G\xf5khY\xe2@'
tRp132
sS'aic_score'
p133
g18
(g12
S'04\xa0X1\xd3\x88@'
tRp134
sS'claic_eps'
p135
F1e-14
sS'dt_fac'
p136
F0.10000000000000001
sS'number_of_changes'
p137
g8
(g9
(I0
tS'b'
tRp138
(I1
(I4
tg12
I00
S'\x00\x00\x00\x00\x00\x80C@\x00\x00\x00\x00\x00\x80@@\x00\x00\x00\x00\x00\x80C@\x00\x00\x00\x00\x00\x00B@'
tbsba.