(lp1
(igadma.demographic_model
Demographic_model
p2
(dp3
S'lower_bound'
p4
(lp5
F0.001
aF0.001
aF0
aF0
asS'param_ids'
p6
(lp7
(I0
I0
tp8
a(I1
I0
tp9
a(I1
I1
tp10
a(I1
I2
tp11
a(I2
I0
tp12
a(I2
I1
tp13
a(I2
I2
tp14
asS'sfs'
p15
cmoments.Spectrum_mod
Spectrum_unpickler
p16
(cnumpy.core.multiarray
_reconstruct
p17
(cnumpy
ndarray
p18
(I0
tS'b'
tRp19
(I1
(I21
tcnumpy
dtype
p20
(S'f8'
I0
I1
tRp21
(I3
S'<'
NNNI-1
I-1
I0
tbI00
S"\xb2\xfa\xc5\xfa\xc4)\xeb@\xf6->\xa2\\m\xc2@\xaeXi\xaf\xea\x1e\xac@\xe1\xce\xaf\xd3$/\xa4@N\xd4\x17\xec'\xbf\xa1@-\xb8\xe8\xec(x\xa0@\x82\xc4\xd7l\xf5\x02\x9f@\xc83\xf9C\x82S\x9d@~\xd24~z\xc8\x9b@\xe0?\xc96\xcaY\x9a@\xc3\x95\xbe\xf1\xd4\x03\x99@j1~\x0cM\xc4\x97@\xd0\xcf\x93kc\x99\x96@)$\xf5\xc2\x8b\x81\x95@s\x82\xd1cg{\x94@D\x0cQ\x15\xbb\x85\x93@j\xf3\xdf\xcch\x9f\x92@l<Q2k\xc7\x91@\x8a\x16\x043\xd2\xfc\x90@\xa8\x0b{L\xc0>\x90@4E\xa7\x1d\x04\x12\xba@"
tbg17
(g18
(I0
tS'b'
tRp22
(I1
(I21
tg20
(S'b1'
I0
I1
tRp23
(I3
S'|'
NNNI-1
I-1
I0
tbI00
S'\x01\x00\x00\x00\x00\x00\x00\x00\x00\x00\x00\x00\x00\x00\x00\x00\x00\x00\x00\x00\x01'
tbI00
NNtRp24
sS'fitness_func_value'
p25
cnumpy.core.multiarray
scalar
p26
(g21
S'\xc0\xf3\x9e\xcb\xcf&V@'
tRp27
sS'periods'
p28
(lp29
ccopy_reg
_reconstructor
p30
(cgadma.demographic_model
Period
p31
c__builtin__
object
p32
NtRp33
(dp34
S'sizes_of_populations'
p35
(lp36
g26
(g21
S'\xe7\xbb\x15q\x98\xba\xc3@'
tRp37
asS'is_first_period'
p38
I01
sS'time'
p39
g26
(g21
S'\x00\x00\x00\x00\x00\x00\x00\x00'
tRp40
sS'number_of_populations'
p41
I1
sS'migration_rates'
p42
NsS'number_of_parameters'
p43
I1
sS'is_split_of_population'
p44
I00
sS'growth_types'
p45
NsS'only_sudden'
p46
I01
sbag30
(g31
g32
NtRp47
(dp48
g35
(lp49
g26
(g21
S'\x14)\x13\xbd\x88\xea;@'
tRp50
asg38
I00
sg39
g26
(g21
S'H\xe8\x96\xa0\xf1c\x90@'
tRp51
sg41
I1
sg42
Nsg43
I3
sg44
I00
sg45
(lp52
I1
asg46
I00
sbag30
(g31
g32
NtRp53
(dp54
g35
(lp55
g26
(g21
S'\xb1;\xa6M\xab\xbc\xc3@'
tRp56
asg38
I00
sg39
g26
(g21
S'*\x8d\x9d\xa1\x86\r\x7f@'
tRp57
sg41
I1
sg42
Nsg43
I3
sg44
I00
sg45
(lp58
I0
asg46
I00
sbasS'number_of_periods'
p59
I3
sS'cur_structure'
p60
(lp61
I3
asS'is_custom_model'
p62
I00
sS'claic_score'
p63
g26
(g21
S'\xcc\xf5\x9e\xcb\xcf&f@'
tRp64
sS'split_2_pos'
p65
NsS'info'
p66
S'cm'
p67
sS'upper_bound'
p68
(lp69
F100
aF100
aF5
aF5
asS'split_1_pos'
p70
Nsg41
I1
sS'params'
p71
(igadma.options
Options_storage
p72
(dp73
S'only_models'
p74
NsS'multinom_mutate'
p75
I00
sS'const_for_mut_strength'
p76
F1.01
sS'frac_of_old_models'
p77
F0.20000000000000001
sS'resume_dir'
p78
NsS'linked_snp'
p79
I01
sS'multinom'
p80
I00
sS'relative_params'
p81
I00
sS'min_T'
p82
F0
sS'fracs'
p83
(lp84
F0.20000000000000001
aF0.29999999999999999
aF0.29999999999999999
asS'pil_available'
p85
I01
sS'no_mig'
p86
I00
sS'size_of_generation'
p87
I10
sS'mutation_strength'
p88
F0.20000000000000001
sS'gen_time_units'
p89
F1
sS'epsilon'
p90
F0.01
sS'optimize_name'
p91
S'optimize_powell'
p92
sS'frac_of_mutated_models'
p93
F0.29999999999999999
sS'initial_structure'
p94
g17
(g18
(I0
tS'b'
tRp95
(I1
(I1
tg20
(S'i8'
I0
I1
tRp96
(I3
S'<'
NNNI-1
I-1
I0
tbI00
S'\x03\x00\x00\x00\x00\x00\x00\x00'
tbsg46
I00
sS'std'
p97
NsS'processes'
p98
I10
sS'split_2_lim'
p99
NsS'frac_of_crossed_models'
p100
F0.29999999999999999
sS'min_N'
p101
F0.001
sS'pop_labels'
p102
(lp103
S'pop 0'
p104
asS'model_func_file'
p105
NsS'distribution'
p106
S'normal'
p107
sS'gen_time'
p108
NsS'max_N'
p109
F100
sS'max_M'
p110
F10
sS'dadi_pts'
p111
(lp112
g26
(g20
(S'i8'
I0
I1
tRp113
(I3
S'<'
NNNI-1
I-1
I0
tbS'\x14\x00\x00\x00\x00\x00\x00\x00'
tRp114
ag26
(g113
S'\x1e\x00\x00\x00\x00\x00\x00\x00'
tRp115
ag26
(g113
S'(\x00\x00\x00\x00\x00\x00\x00'
tRp116
asS'min_M'
p117
F0
sS'max_T'
p118
F5
sS'ls_epsilon'
p119
F0.001
sS'ls_flush_delay'
p120
F0.5
sS'ls_maxiter'
p121
NsS'time_for_print'
p122
I1
sg41
I1
sS'output_dir'
p123
S'/mnt/ssd1/enoskova/simulations/1_simbot/results/gadma/out_0'
p124
sg4
NsS'test'
p125
I00
sS'theta'
p126
F2
sS'model_func'
p127
NsS'ns'
p128
g17
(g18
(I0
tS'b'
tRp129
(I1
(I1
tg96
I00
S'\x14\x00\x00\x00\x00\x00\x00\x00'
tbsS'hc_mutation_rate'
p130
NsS'hc_stop_iter'
p131
NsS'moments_scenario'
p132
I01
sS'draw_iter'
p133
I0
sS'input_file'
p134
S'/mnt/ssd1/enoskova/simulations/1_simbot/simulated_data/00.fs'
p135
sS'random_N_A'
p136
I01
sS'split_1_lim'
p137
NsS'ls_gtol'
p138
F1.0000000000000001e-05
sS'p_ids'
p139
NsS'hc_const_for_mutation_rate'
p140
NsS'multinom_cross'
p141
I00
sS'moments_available'
p142
I01
sS'ls_verbose'
p143
Nsg68
NsS'stop_iter'
p144
I100
sS'const_for_mut_rate'
p145
F1.02
sS'input_data'
p146
cdadi.Spectrum_mod
Spectrum_unpickler
p147
(g17
(g18
(I0
tS'b'
tRp148
(I1
(I21
tg20
(S'f8'
I0
I1
tRp149
(I3
S'<'
NNNI-1
I-1
I0
tbI00
S"\x06\xf3\x0cX\xd0\xaa\xe1@\x8b9\x95\xe8\xeel\xc2@9\xfd\xa6r\x82&\xac@\x0eg\xe2\x151'\xa4@l\xa5\x83\xb5(\xb5\xa1@\xe2g\x0c\xb8\xf6q\xa0@K\xfc\xfd\xff*\x00\x9f@\x8d\xae~/\xaeX\x9d@\xcb\xcf_\x11\r\xd3\x9b@\xfej\xf7\xc9Eg\x9a@\x84\x17\x9ao\x1b\x12\x99@\xb1x\xe8>\xae\xd1\x97@e\xc0]f\x96\xa4\x96@\xbd\xf0\x93F\xa2\x89\x95@WWXK\xc0\x7f\x94@$\x99M\x86\xf5\x85\x93@\xf2\x96\xa9\xb3X\x9b\x92@6,L'\x0f\xbf\x91@$>\xef\xbaJ\xf0\x90@\xd0\xb5\xdcUH.\x90@8\x97\xde5\to\xb5@"
tbg17
(g18
(I0
tS'b'
tRp150
(I1
(I21
tg20
(S'b1'
I0
I1
tRp151
(I3
S'|'
NNNI-1
I-1
I0
tbI00
S'\x01\x00\x00\x00\x00\x00\x00\x00\x00\x00\x00\x00\x00\x00\x00\x00\x00\x00\x00\x00\x01'
tbI00
g103
NtRp152
sS'mutation_rate'
p153
F0.20000000000000001
sS'matplotlib_available'
p154
I01
sS'code_iter'
p155
I0
sS'repeats'
p156
I50
sS'final_structure'
p157
g17
(g18
(I0
tS'b'
tRp158
(I1
(I1
tg96
I00
S'\x03\x00\x00\x00\x00\x00\x00\x00'
tbsS'silence'
p159
I01
sbsS'aic_score'
p160
g26
(g21
S'\xc0\xf3\x9e\xcb\xcf\xe6g@'
tRp161
sS'claic_eps'
p162
F1e-14
sS'dt_fac'
p163
F0.10000000000000001
sS'number_of_changes'
p164
g17
(g18
(I0
tS'b'
tRp165
(I1
(I7
tg21
I00
S'\x00\x00\x00\x00\x00\x80H@\x00\x00\x00\x00\x00\x80H@\x00\x00\x00\x00\x00\x80G@\x00\x00\x00\x00\x00\x80H@\x00\x00\x00\x00\x00\x80H@\x00\x00\x00\x00\x00\x00G@\x00\x00\x00\x00\x00\x00=@'
tbsba.