(lp1
(igadma.demographic_model
Demographic_model
p2
(dp3
S'lower_bound'
p4
(lp5
F0.001
aF0.001
aF0
aF0
asS'param_ids'
p6
(lp7
(I0
I0
tp8
a(I1
I0
tp9
a(I1
I1
tp10
a(I2
I0
tp11
a(I2
I1
tp12
asS'sfs'
p13
cmoments.Spectrum_mod
Spectrum_unpickler
p14
(cnumpy.core.multiarray
_reconstruct
p15
(cnumpy
ndarray
p16
(I0
tS'b'
tRp17
(I1
(I21
tcnumpy
dtype
p18
(S'f8'
I0
I1
tRp19
(I3
S'<'
NNNI-1
I-1
I0
tbI00
S'\xb0\xc6\xce\xd37\x15\x1dA\xea\x07J^&m\xc2@\x97\xe3\xde\x83F\x1a\xad@h\x03\xac\x9a\xb0\xa5\xa5@$\x1f\xc6\xf4<&\xa2@Ex\xdd\xf8~\xeb\x9f@ofF\x7f\x1d\xfa\x9c@L\xcco{ \xe5\x9a@\xdb\x85\xc4\x15\xf2W\x99@?E\xcb\x01\xda"\x98@F\x90\xf6\xd2\x9d*\x97@\xe1\x13\x93\x1a\xc9^\x96@q\x8b\x8c\xc4\x98\xb4\x95@\xdd;nd\x80$\x95@\xd1\x82\x990\xf6\xa8\x94@{\xee\xc4\xd3\xd2=\x94@\xdf\x98\x1d\r\xf2\xdf\x93@\x86\x95\x86 \xf1\x8c\x93@\xdb\xb5\xdbz\xfdB\x93@V\xfb\x13m\xae\x00\x93@\x1d\xe4z.z5\xfd@'
tbg15
(g16
(I0
tS'b'
tRp20
(I1
(I21
tg18
(S'b1'
I0
I1
tRp21
(I3
S'|'
NNNI-1
I-1
I0
tbI00
S'\x01\x00\x00\x00\x00\x00\x00\x00\x00\x00\x00\x00\x00\x00\x00\x00\x00\x00\x00\x00\x01'
tbI00
NNtRp22
sS'fitness_func_value'
p23
cnumpy.core.multiarray
scalar
p24
(g19
S'\xa0\xaa\xe5\x0f\n\xc9d@'
tRp25
sS'periods'
p26
(lp27
ccopy_reg
_reconstructor
p28
(cgadma.demographic_model
Period
p29
c__builtin__
object
p30
NtRp31
(dp32
S'sizes_of_populations'
p33
(lp34
g24
(g19
S'5U#/J\x1f\xf0@'
tRp35
asS'is_first_period'
p36
I01
sS'time'
p37
g24
(g19
S'\x00\x00\x00\x00\x00\x00\x00\x00'
tRp38
sS'number_of_populations'
p39
I1
sS'migration_rates'
p40
NsS'number_of_parameters'
p41
I1
sS'is_split_of_population'
p42
I00
sS'growth_types'
p43
NsS'only_sudden'
p44
I01
sbag28
(g29
g30
NtRp45
(dp46
g33
(lp47
g24
(g19
S'\x93\x89\xf7T\xf3\xbf\xa5@'
tRp48
asg36
I00
sg37
g24
(g19
S"'C\xfcX\xca\x1a\xc0@"
tRp49
sg39
I1
sg40
Nsg41
I2
sg42
I00
sg43
(lp50
I0
asg44
I01
sbag28
(g29
g30
NtRp51
(dp52
g33
(lp53
g24
(g19
S'\xc6\x18\x81\xe9\xe30YA'
tRp54
asg36
I00
sg37
g24
(g19
S'\xda\xd3\x80\xe0\x03ib@'
tRp55
sg39
I1
sg40
Nsg41
I2
sg42
I00
sg43
(lp56
I0
asg44
I01
sbasS'number_of_periods'
p57
I3
sS'cur_structure'
p58
(lp59
I3
asS'is_custom_model'
p60
I00
sS'claic_score'
p61
NsS'split_2_pos'
p62
NsS'info'
p63
S'c'
sS'upper_bound'
p64
(lp65
F100
aF100
aF5
aF5
asS'split_1_pos'
p66
Nsg39
I1
sS'params'
p67
(igadma.options
Options_storage
p68
(dp69
S'only_models'
p70
NsS'multinom_mutate'
p71
I00
sS'const_for_mut_strength'
p72
F1.01
sS'frac_of_old_models'
p73
F0.20000000000000001
sS'resume_dir'
p74
NsS'linked_snp'
p75
I01
sS'multinom'
p76
I00
sS'relative_params'
p77
I00
sS'max_N'
p78
F100
sS'fracs'
p79
(lp80
F0.20000000000000001
aF0.29999999999999999
aF0.29999999999999999
asS'pil_available'
p81
I01
sS'no_mig'
p82
I00
sS'size_of_generation'
p83
I10
sS'dadi_pts'
p84
(lp85
g24
(g18
(S'i8'
I0
I1
tRp86
(I3
S'<'
NNNI-1
I-1
I0
tbS'\x14\x00\x00\x00\x00\x00\x00\x00'
tRp87
ag24
(g86
S'\x1e\x00\x00\x00\x00\x00\x00\x00'
tRp88
ag24
(g86
S'(\x00\x00\x00\x00\x00\x00\x00'
tRp89
asS'gen_time_units'
p90
F1
sg4
NsS'optimize_name'
p91
S'optimize_powell'
p92
sS'frac_of_mutated_models'
p93
F0.29999999999999999
sS'initial_structure'
p94
g15
(g16
(I0
tS'b'
tRp95
(I1
(I1
tg18
(S'i8'
I0
I1
tRp96
(I3
S'<'
NNNI-1
I-1
I0
tbI00
S'\x03\x00\x00\x00\x00\x00\x00\x00'
tbsg44
I01
sS'std'
p97
NsS'processes'
p98
I10
sS'split_2_lim'
p99
NsS'frac_of_crossed_models'
p100
F0.29999999999999999
sS'max_T'
p101
F5
sS'pop_labels'
p102
(lp103
S'pop 0'
p104
asS'boot_dir'
p105
NsS'model_func_file'
p106
NsS'distribution'
p107
S'normal'
p108
sS'gen_time'
p109
NsS'min_T'
p110
F0
sS'max_M'
p111
F10
sS'mutation_strength'
p112
F0.20000000000000001
sS'boots'
p113
NsS'min_M'
p114
F0
sS'min_N'
p115
F0.001
sS'ls_epsilon'
p116
F0.001
sS'ls_flush_delay'
p117
F0.5
sS'ls_maxiter'
p118
NsS'time_for_print'
p119
I1
sg39
I1
sS'output_dir'
p120
S'/mnt/ssd1/enoskova/simulations/1_simbot/results/gadma/out_0_sudden_only'
p121
sS'epsilon'
p122
F0.01
sS'test'
p123
I00
sS'theta'
p124
F2
sS'model_func'
p125
NsS'ns'
p126
g15
(g16
(I0
tS'b'
tRp127
(I1
(I1
tg96
I00
S'\x14\x00\x00\x00\x00\x00\x00\x00'
tbsS'hc_mutation_rate'
p128
NsS'hc_stop_iter'
p129
NsS'moments_scenario'
p130
I01
sS'draw_iter'
p131
I0
sS'input_file'
p132
S'/mnt/ssd1/enoskova/simulations/1_simbot/simulated_data/00.fs'
p133
sS'random_N_A'
p134
I01
sS'split_1_lim'
p135
NsS'ls_gtol'
p136
F1.0000000000000001e-05
sS'p_ids'
p137
NsS'hc_const_for_mutation_rate'
p138
NsS'multinom_cross'
p139
I00
sS'moments_available'
p140
I01
sS'ls_verbose'
p141
Nsg64
NsS'stop_iter'
p142
I100
sS'const_for_mut_rate'
p143
F1.02
sS'input_data'
p144
cdadi.Spectrum_mod
Spectrum_unpickler
p145
(g15
(g16
(I0
tS'b'
tRp146
(I1
(I21
tg18
(S'f8'
I0
I1
tRp147
(I3
S'<'
NNNI-1
I-1
I0
tbI00
S"\x06\xf3\x0cX\xd0\xaa\xe1@\x8b9\x95\xe8\xeel\xc2@9\xfd\xa6r\x82&\xac@\x0eg\xe2\x151'\xa4@l\xa5\x83\xb5(\xb5\xa1@\xe2g\x0c\xb8\xf6q\xa0@K\xfc\xfd\xff*\x00\x9f@\x8d\xae~/\xaeX\x9d@\xcb\xcf_\x11\r\xd3\x9b@\xfej\xf7\xc9Eg\x9a@\x84\x17\x9ao\x1b\x12\x99@\xb1x\xe8>\xae\xd1\x97@e\xc0]f\x96\xa4\x96@\xbd\xf0\x93F\xa2\x89\x95@WWXK\xc0\x7f\x94@$\x99M\x86\xf5\x85\x93@\xf2\x96\xa9\xb3X\x9b\x92@6,L'\x0f\xbf\x91@$>\xef\xbaJ\xf0\x90@\xd0\xb5\xdcUH.\x90@8\x97\xde5\to\xb5@"
tbg15
(g16
(I0
tS'b'
tRp148
(I1
(I21
tg18
(S'b1'
I0
I1
tRp149
(I3
S'|'
NNNI-1
I-1
I0
tbI00
S'\x01\x00\x00\x00\x00\x00\x00\x00\x00\x00\x00\x00\x00\x00\x00\x00\x00\x00\x00\x00\x01'
tbI00
g103
NtRp150
sS'mutation_rate'
p151
F0.20000000000000001
sS'matplotlib_available'
p152
I01
sS'code_iter'
p153
I0
sS'repeats'
p154
I50
sS'final_structure'
p155
g15
(g16
(I0
tS'b'
tRp156
(I1
(I1
tg96
I00
S'\x03\x00\x00\x00\x00\x00\x00\x00'
tbsS'silence'
p157
I00
sbsS'aic_score'
p158
g24
(g19
S'\xa0\xaa\xe5\x0f\niu@'
tRp159
sS'claic_eps'
p160
NsS'dt_fac'
p161
F0.10000000000000001
sS'number_of_changes'
p162
g15
(g16
(I0
tS'b'
tRp163
(I1
(I5
tg19
I00
S'\x00\x00\x00\x00\x00\x00V@\x00\x00\x00\x00\x00@U@\x00\x00\x00\x00\x00\x80U@\x00\x00\x00\x00\x00@Q@\x00\x00\x00\x00\x00@U@'
tbsba.