(lp1
(igadma.demographic_model
Demographic_model
p2
(dp3
S'lower_bound'
p4
(lp5
F0.001
aF0.001
aF0
aF0
asS'sfs'
p6
cmoments.Spectrum_mod
Spectrum_unpickler
p7
(cnumpy.core.multiarray
_reconstruct
p8
(cnumpy
ndarray
p9
(I0
tS'b'
tRp10
(I1
(I21
tcnumpy
dtype
p11
(S'f8'
I0
I1
tRp12
(I3
S'<'
NNNI-1
I-1
I0
tbI00
S'\xa3\xde\xc9\xf6\x82\xce7AS\xa0\xf2JT\xeb\xbf@\x00{\xbc\xc2\xe3d\xb1@1\x1e\x1a\xabO\x1a\xa9@er9\x1f2B\xa4@\xaa\xde M\xd2Y\xa1@\x87\x87&\xb1\xa2\xd2\x9e@K\xf3\xc9\xa1\xe8\x0c\x9c@\x00\xcb}{;\xf8\x99@Y\xb3r\xf1\x96Y\x98@\xd7\x98\xc2\x08\x92\r\x97@Tx\xc6!\xa4\xfd\x95@0\xea\xb7|\xc7\x1a\x95@o\x93\x84\xa8\x95Z\x94@jX\xb1\xe6\xa0\xb5\x93@\xe3\x94}\x9av&\x93@\xa5\xd2X\xce\x00\xa9\x92@\x18\x1d\\\xa8\x1f:\x92@z\x9aE\re\xd7\x91@\x0e3\x17\xda\xe5~\x91@\xc72\xb4\r\xbda\xf6@'
tbg8
(g9
(I0
tS'b'
tRp13
(I1
(I21
tg11
(S'b1'
I0
I1
tRp14
(I3
S'|'
NNNI-1
I-1
I0
tbI00
S'\x01\x00\x00\x00\x00\x00\x00\x00\x00\x00\x00\x00\x00\x00\x00\x00\x00\x00\x00\x00\x01'
tbI00
NNtRp15
sS'param_ids'
p16
c__builtin__
xrange
p17
(I0
I0
I1
tRp18
sS'fitness_func_value'
p19
cnumpy.core.multiarray
scalar
p20
(g12
S'0\rqi\x18\x98x@'
tRp21
sS'popt'
p22
(lp23
g20
(g12
S'\xa0Ha!\xcct#@'
tRp24
ag20
(g12
S'\xfaj\xb2\x13\xc6r\xd1?'
tRp25
ag20
(g12
S'\x00\x00\x00\x00\x00\x00\x14@'
tRp26
ag20
(g12
S'\x12\xbb\xa2\xb0q,\xeb?'
tRp27
asS'cur_structure'
p28
NsS'popt_len'
p29
I4
sS'claic_score'
p30
g20
(g12
S'\x15\x92qi\x18\x98\x88@'
tRp31
sS'split_2_pos'
p32
NsS'info'
p33
S'c'
sS'upper_bound'
p34
(lp35
F100
aF100
aF5
aF5
asS'is_custom_model'
p36
I01
sS'split_1_pos'
p37
NsS'number_of_populations'
p38
I1
sS'params'
p39
(igadma.options
Options_storage
p40
(dp41
S'only_models'
p42
NsS'multinom_mutate'
p43
I00
sS'const_for_mut_strength'
p44
F1.01
sS'frac_of_old_models'
p45
F0.20000000000000001
sS'resume_dir'
p46
NsS'linked_snp'
p47
I01
sS'multinom'
p48
I01
sS'relative_params'
p49
I00
sS'min_T'
p50
F0
sS'fracs'
p51
(lp52
F0.20000000000000001
aF0.29999999999999999
aF0.29999999999999999
asS'pil_available'
p53
I01
sS'no_mig'
p54
I00
sS'size_of_generation'
p55
I10
sS'mutation_strength'
p56
F0.20000000000000001
sS'gen_time_units'
p57
F1
sS'epsilon'
p58
F0.01
sS'optimize_name'
p59
S'optimize_powell'
p60
sS'frac_of_mutated_models'
p61
F0.29999999999999999
sS'initial_structure'
p62
NsS'only_sudden'
p63
I00
sS'std'
p64
NsS'processes'
p65
I10
sS'split_2_lim'
p66
NsS'frac_of_crossed_models'
p67
F0.29999999999999999
sS'min_N'
p68
F0.001
sS'pop_labels'
p69
(lp70
S'pop 0'
p71
asS'model_func_file'
p72
S'/mnt/ssd1/enoskova/simulations/1_simbot/demographic_model.py'
p73
sS'distribution'
p74
S'normal'
p75
sS'gen_time'
p76
NsS'max_N'
p77
F100
sS'max_M'
p78
F10
sS'dadi_pts'
p79
(lp80
g20
(g11
(S'i8'
I0
I1
tRp81
(I3
S'<'
NNNI-1
I-1
I0
tbS'\x14\x00\x00\x00\x00\x00\x00\x00'
tRp82
ag20
(g81
S'\x1e\x00\x00\x00\x00\x00\x00\x00'
tRp83
ag20
(g81
S'(\x00\x00\x00\x00\x00\x00\x00'
tRp84
asS'min_M'
p85
F0
sS'max_T'
p86
F5
sS'ls_epsilon'
p87
F0.001
sS'ls_flush_delay'
p88
F0.5
sS'ls_maxiter'
p89
NsS'time_for_print'
p90
I1
sg38
I1
sS'output_dir'
p91
S'/mnt/ssd1/enoskova/simulations/1_simbot/results/gadma/out_0_custom'
p92
sg4
g5
sS'test'
p93
I00
sS'theta'
p94
F2
sS'model_func'
p95
cmodule
model_func
p96
sS'ns'
p97
g8
(g9
(I0
tS'b'
tRp98
(I1
(I1
tg11
(S'i8'
I0
I1
tRp99
(I3
S'<'
NNNI-1
I-1
I0
tbI00
S'\x14\x00\x00\x00\x00\x00\x00\x00'
tbsS'hc_mutation_rate'
p100
NsS'hc_stop_iter'
p101
NsS'moments_scenario'
p102
I01
sS'draw_iter'
p103
I0
sS'input_file'
p104
S'/mnt/ssd1/enoskova/simulations/1_simbot/simulated_data/00.fs'
p105
sS'random_N_A'
p106
I01
sS'split_1_lim'
p107
NsS'ls_gtol'
p108
F1.0000000000000001e-05
sS'p_ids'
p109
g8
(g9
(I0
tS'b'
tRp110
(I1
(I4
tg11
(S'S1'
I0
I1
tRp111
(I3
S'|'
NNNI1
I1
I0
tbI00
S'nntt'
tbsS'hc_const_for_mutation_rate'
p112
NsS'multinom_cross'
p113
I00
sS'moments_available'
p114
I01
sS'ls_verbose'
p115
Nsg34
g35
sS'stop_iter'
p116
I100
sS'const_for_mut_rate'
p117
F1.02
sS'input_data'
p118
cdadi.Spectrum_mod
Spectrum_unpickler
p119
(g8
(g9
(I0
tS'b'
tRp120
(I1
(I21
tg11
(S'f8'
I0
I1
tRp121
(I3
S'<'
NNNI-1
I-1
I0
tbI00
S"\x06\xf3\x0cX\xd0\xaa\xe1@\x8b9\x95\xe8\xeel\xc2@9\xfd\xa6r\x82&\xac@\x0eg\xe2\x151'\xa4@l\xa5\x83\xb5(\xb5\xa1@\xe2g\x0c\xb8\xf6q\xa0@K\xfc\xfd\xff*\x00\x9f@\x8d\xae~/\xaeX\x9d@\xcb\xcf_\x11\r\xd3\x9b@\xfej\xf7\xc9Eg\x9a@\x84\x17\x9ao\x1b\x12\x99@\xb1x\xe8>\xae\xd1\x97@e\xc0]f\x96\xa4\x96@\xbd\xf0\x93F\xa2\x89\x95@WWXK\xc0\x7f\x94@$\x99M\x86\xf5\x85\x93@\xf2\x96\xa9\xb3X\x9b\x92@6,L'\x0f\xbf\x91@$>\xef\xbaJ\xf0\x90@\xd0\xb5\xdcUH.\x90@8\x97\xde5\to\xb5@"
tbg8
(g9
(I0
tS'b'
tRp122
(I1
(I21
tg11
(S'b1'
I0
I1
tRp123
(I3
S'|'
NNNI-1
I-1
I0
tbI00
S'\x01\x00\x00\x00\x00\x00\x00\x00\x00\x00\x00\x00\x00\x00\x00\x00\x00\x00\x00\x00\x01'
tbI00
g70
NtRp124
sS'mutation_rate'
p125
F0.20000000000000001
sS'matplotlib_available'
p126
I01
sS'code_iter'
p127
I0
sS'repeats'
p128
I50
sS'final_structure'
p129
NsS'silence'
p130
I01
sbsS'optimal_theta'
p131
g20
(g12
S'ZqQ\xc6\xdd\xa2\xda@'
tRp132
sS'aic_score'
p133
g20
(g12
S'0\rqi\x18\xd8\x88@'
tRp134
sS'claic_eps'
p135
F1e-14
sS'dt_fac'
p136
F0.10000000000000001
sS'number_of_changes'
p137
g8
(g9
(I0
tS'b'
tRp138
(I1
(I4
tg12
I00
S'\x00\x00\x00\x00\x00\x00:@\x00\x00\x00\x00\x00\x009@\x00\x00\x00\x00\x00\x00:@\x00\x00\x00\x00\x00\x00<@'
tbsba.