(lp1
(igadma.demographic_model
Demographic_model
p2
(dp3
S'lower_bound'
p4
(lp5
F0.001
aF0.001
aF0
aF0
asS'param_ids'
p6
c__builtin__
xrange
p7
(I0
I0
I1
tRp8
sS'sfs'
p9
cmoments.Spectrum_mod
Spectrum_unpickler
p10
(cnumpy.core.multiarray
_reconstruct
p11
(cnumpy
ndarray
p12
(I0
tS'b'
tRp13
(I1
(I21
tcnumpy
dtype
p14
(S'f8'
I0
I1
tRp15
(I3
S'<'
NNNI-1
I-1
I0
tbI00
S"\xf4\r0}\xdf\x187A^\xd6\xd5\x8c\xbf\xe9\xbf@B/]\x88[d\xb1@\xb6W\xa5n\xec\x19\xa9@$\xf5T'!B\xa4@\xd5J^8\xefY\xa1@7\xc0\x8f\xec\x13\xd3\x9e@\x96}Ox|\r\x9c@G\xe3\x0e\xef\xe4\xf8\x99@!\xce\xbfXMZ\x98@ad\xbcSO\x0e\x97@\xa2v\xb5\xe7c\xfe\x95@(\xe7\x1eo\x86\x1b\x95@\x9a\xe9I<Q[\x94@.\x99K\x1cW\xb6\x93@\x97\x03\xbc\xd8%'\x93@\xf08\xcd\xc8\xa7\xa9\x92@?#KM\xbd:\x92@\x99y\x9bx\xf8\xd7\x91@\xd2*\xcbKn\x7f\x91@6Y*\xe7M\x99\xf5@"
tbg11
(g12
(I0
tS'b'
tRp16
(I1
(I21
tg14
(S'b1'
I0
I1
tRp17
(I3
S'|'
NNNI-1
I-1
I0
tbI00
S'\x01\x00\x00\x00\x00\x00\x00\x00\x00\x00\x00\x00\x00\x00\x00\x00\x00\x00\x00\x00\x01'
tbI00
NNtRp18
sS'fitness_func_value'
p19
cnumpy.core.multiarray
scalar
p20
(g15
S'\xe0\x8b8N~\x98x@'
tRp21
sS'popt'
p22
(lp23
g20
(g15
S'\xe8\xeb.\x07\x86\xac&@'
tRp24
ag20
(g15
S']\x85fA\x8a\x0f\xd2?'
tRp25
aF5
ag20
(g15
S'\x85Y\xb1\x04y)\xec?'
tRp26
asS'cur_structure'
p27
NsS'popt_len'
p28
I4
sS'claic_score'
p29
NsS'split_2_pos'
p30
NsS'info'
p31
S'cm'
p32
sS'upper_bound'
p33
(lp34
F100
aF100
aF5
aF5
asS'is_custom_model'
p35
I01
sS'split_1_pos'
p36
NsS'number_of_populations'
p37
I1
sS'params'
p38
(igadma.options
Options_storage
p39
(dp40
S'only_models'
p41
NsS'multinom_mutate'
p42
I00
sS'const_for_mut_strength'
p43
F1.01
sS'frac_of_old_models'
p44
F0.20000000000000001
sS'resume_dir'
p45
NsS'linked_snp'
p46
I01
sS'multinom'
p47
I01
sS'relative_params'
p48
I00
sS'max_N'
p49
F100
sS'fracs'
p50
(lp51
F0.20000000000000001
aF0.29999999999999999
aF0.29999999999999999
asS'pil_available'
p52
I01
sS'no_mig'
p53
I00
sS'size_of_generation'
p54
I10
sS'dadi_pts'
p55
(lp56
g20
(g14
(S'i8'
I0
I1
tRp57
(I3
S'<'
NNNI-1
I-1
I0
tbS'\x14\x00\x00\x00\x00\x00\x00\x00'
tRp58
ag20
(g57
S'\x1e\x00\x00\x00\x00\x00\x00\x00'
tRp59
ag20
(g57
S'(\x00\x00\x00\x00\x00\x00\x00'
tRp60
asS'gen_time_units'
p61
F1
sg4
g5
sS'optimize_name'
p62
S'optimize_log'
p63
sS'frac_of_mutated_models'
p64
F0.29999999999999999
sS'initial_structure'
p65
NsS'only_sudden'
p66
I00
sS'std'
p67
NsS'processes'
p68
I10
sS'split_2_lim'
p69
NsS'frac_of_crossed_models'
p70
F0.29999999999999999
sS'max_T'
p71
F5
sS'pop_labels'
p72
(lp73
S'pop 0'
p74
asS'boot_dir'
p75
NsS'model_func_file'
p76
S'/mnt/ssd1/enoskova/simulations/1_simbot/demographic_model.py'
p77
sS'distribution'
p78
S'normal'
p79
sS'gen_time'
p80
NsS'min_T'
p81
F0
sS'max_M'
p82
F10
sS'mutation_strength'
p83
F0.20000000000000001
sS'boots'
p84
NsS'min_M'
p85
F0
sS'min_N'
p86
F0.001
sS'ls_epsilon'
p87
F0.001
sS'ls_flush_delay'
p88
F0.5
sS'ls_maxiter'
p89
NsS'time_for_print'
p90
I1
sg37
I1
sS'output_dir'
p91
S'/mnt/ssd1/enoskova/simulations/1_simbot/results/gadma/out_0_custom_triangular'
p92
sS'epsilon'
p93
F0.01
sS'test'
p94
I00
sS'theta'
p95
F2
sS'model_func'
p96
cmodule
model_func
p97
sS'ns'
p98
g11
(g12
(I0
tS'b'
tRp99
(I1
(I1
tg14
(S'i8'
I0
I1
tRp100
(I3
S'<'
NNNI-1
I-1
I0
tbI00
S'\x14\x00\x00\x00\x00\x00\x00\x00'
tbsS'hc_mutation_rate'
p101
NsS'hc_stop_iter'
p102
NsS'moments_scenario'
p103
I01
sS'draw_iter'
p104
I0
sS'input_file'
p105
S'/mnt/ssd1/enoskova/simulations/1_simbot/simulated_data/00.fs'
p106
sS'random_N_A'
p107
I01
sS'split_1_lim'
p108
NsS'ls_gtol'
p109
F1.0000000000000001e-05
sS'p_ids'
p110
g11
(g12
(I0
tS'b'
tRp111
(I1
(I4
tg14
(S'S1'
I0
I1
tRp112
(I3
S'|'
NNNI1
I1
I0
tbI00
S'nntt'
tbsS'hc_const_for_mutation_rate'
p113
NsS'multinom_cross'
p114
I00
sS'moments_available'
p115
I01
sS'ls_verbose'
p116
Nsg33
g34
sS'stop_iter'
p117
I100
sS'const_for_mut_rate'
p118
F1.02
sS'input_data'
p119
cdadi.Spectrum_mod
Spectrum_unpickler
p120
(g11
(g12
(I0
tS'b'
tRp121
(I1
(I21
tg14
(S'f8'
I0
I1
tRp122
(I3
S'<'
NNNI-1
I-1
I0
tbI00
S"\x06\xf3\x0cX\xd0\xaa\xe1@\x8b9\x95\xe8\xeel\xc2@9\xfd\xa6r\x82&\xac@\x0eg\xe2\x151'\xa4@l\xa5\x83\xb5(\xb5\xa1@\xe2g\x0c\xb8\xf6q\xa0@K\xfc\xfd\xff*\x00\x9f@\x8d\xae~/\xaeX\x9d@\xcb\xcf_\x11\r\xd3\x9b@\xfej\xf7\xc9Eg\x9a@\x84\x17\x9ao\x1b\x12\x99@\xb1x\xe8>\xae\xd1\x97@e\xc0]f\x96\xa4\x96@\xbd\xf0\x93F\xa2\x89\x95@WWXK\xc0\x7f\x94@$\x99M\x86\xf5\x85\x93@\xf2\x96\xa9\xb3X\x9b\x92@6,L'\x0f\xbf\x91@$>\xef\xbaJ\xf0\x90@\xd0\xb5\xdcUH.\x90@8\x97\xde5\to\xb5@"
tbg11
(g12
(I0
tS'b'
tRp123
(I1
(I21
tg14
(S'b1'
I0
I1
tRp124
(I3
S'|'
NNNI-1
I-1
I0
tbI00
S'\x01\x00\x00\x00\x00\x00\x00\x00\x00\x00\x00\x00\x00\x00\x00\x00\x00\x00\x00\x00\x01'
tbI00
g73
NtRp125
sS'mutation_rate'
p126
F0.20000000000000001
sS'matplotlib_available'
p127
I01
sS'code_iter'
p128
I0
sS'repeats'
p129
I50
sS'final_structure'
p130
NsS'silence'
p131
I00
sbsS'optimal_theta'
p132
g20
(g15
S'E*2\xc9\xc6\xb9\xd9@'
tRp133
sS'aic_score'
p134
g20
(g15
S'\xe0\x8b8N~\xd8\x88@'
tRp135
sS'claic_eps'
p136
NsS'dt_fac'
p137
F0.10000000000000001
sS'number_of_changes'
p138
g11
(g12
(I0
tS'b'
tRp139
(I1
(I4
tg15
I00
S'\x00\x00\x00\x00\x00\x009@\x00\x00\x00\x00\x00\x009@\x00\x00\x00\x00\x00\x008@\x00\x00\x00\x00\x00\x008@'
tbsba.