(lp1
(igadma.demographic_model
Demographic_model
p2
(dp3
S'lower_bound'
p4
(lp5
F0.001
aF0.001
aF0
aF0
asS'param_ids'
p6
(lp7
(I0
I0
tp8
a(I1
I0
tp9
a(I1
I1
tp10
a(I2
I0
tp11
a(I2
I1
tp12
asS'sfs'
p13
cmoments.Spectrum_mod
Spectrum_unpickler
p14
(cnumpy.core.multiarray
_reconstruct
p15
(cnumpy
ndarray
p16
(I0
tS'b'
tRp17
(I1
(I21
tcnumpy
dtype
p18
(S'f8'
I0
I1
tRp19
(I3
S'<'
NNNI-1
I-1
I0
tbI00
S',\x95W\xbc\x14\x9f\xe2@\xb7\x82&Y\xd8i\xc2@\x0f\xf2D\xa9\x8d.\xac@\x18\xd6C\x80\xbd:\xa4@\x038\x02\xd4\x9e\xc0\xa1@`\x13\xa4oCs\xa0@\xf4.\xac\xbf\xef\xf4\x9e@\xf7U\xe6\xb0\x9bF\x9d@\xf8\xdbt\x890\xbf\x9b@+\xe5\xb7\xa8\xc2T\x9a@\xdbJ\xfe^\xb2\x02\x99@\xca\x9cC\xc77\xc6\x97@c\x84W\xb7Y\x9d\x96@\x0e\xacT+\x8e\x86\x95@\xf7\xcd\xaa\xce\x8f\x80\x94@#\xecP\x86G\x8a\x93@\xba\xe6\xb9\x1c\xbf\xa2\x92@\xf5|\x9e\xc7\x18\xc9\x91@.\xa83\x86\x89\xfc\x90@v\x1d\xc5EU<\x90@\x9aX .\xe43\xb6@'
tbg15
(g16
(I0
tS'b'
tRp20
(I1
(I21
tg18
(S'b1'
I0
I1
tRp21
(I3
S'|'
NNNI-1
I-1
I0
tbI00
S'\x01\x00\x00\x00\x00\x00\x00\x00\x00\x00\x00\x00\x00\x00\x00\x00\x00\x00\x00\x00\x01'
tbI00
NNtRp22
sS'fitness_func_value'
p23
cnumpy.core.multiarray
scalar
p24
(g19
S'\xc0\xc6\x1bm\x9f(V@'
tRp25
sS'periods'
p26
(lp27
ccopy_reg
_reconstructor
p28
(cgadma.demographic_model
Period
p29
c__builtin__
object
p30
NtRp31
(dp32
S'sizes_of_populations'
p33
(lp34
g24
(g19
S'L\xea\xd1\xc8\x86\xa5\xc3@'
tRp35
asS'is_first_period'
p36
I01
sS'time'
p37
g24
(g19
S'\x00\x00\x00\x00\x00\x00\x00\x00'
tRp38
sS'number_of_populations'
p39
I1
sS'migration_rates'
p40
NsS'number_of_parameters'
p41
I1
sS'is_split_of_population'
p42
I00
sS'growth_types'
p43
NsS'only_sudden'
p44
I01
sbag28
(g29
g30
NtRp45
(dp46
g33
(lp47
g24
(g19
S'\x12\xe1Cd\xef\xedr@'
tRp48
asg36
I00
sg37
g24
(g19
S'\xbc\xd7d\xd7\xb4\xaac@'
tRp49
sg39
I1
sg40
Nsg41
I2
sg42
I00
sg43
(lp50
I0
asg44
I01
sbag28
(g29
g30
NtRp51
(dp52
g33
(lp53
g24
(g19
S'\xc91\xdf\x9f\xde\xd0\xc3@'
tRp54
asg36
I00
sg37
g24
(g19
S'.Q\x93\xbe;\xf4}@'
tRp55
sg39
I1
sg40
Nsg41
I2
sg42
I00
sg43
(lp56
I0
asg44
I01
sbasS'number_of_periods'
p57
I3
sS'cur_structure'
p58
(lp59
I3
asS'is_custom_model'
p60
I00
sS'claic_score'
p61
g24
(g19
S';\xc2\x1bm\x9f(f@'
tRp62
sS'split_2_pos'
p63
NsS'info'
p64
S'cm'
p65
sS'upper_bound'
p66
(lp67
F100
aF100
aF5
aF5
asS'split_1_pos'
p68
Nsg39
I1
sS'params'
p69
(igadma.options
Options_storage
p70
(dp71
S'only_models'
p72
NsS'multinom_mutate'
p73
I00
sS'const_for_mut_strength'
p74
F1.01
sS'frac_of_old_models'
p75
F0.20000000000000001
sS'resume_dir'
p76
NsS'linked_snp'
p77
I01
sS'multinom'
p78
I00
sS'relative_params'
p79
I00
sS'max_N'
p80
F100
sS'fracs'
p81
(lp82
F0.20000000000000001
aF0.29999999999999999
aF0.29999999999999999
asS'pil_available'
p83
I01
sS'no_mig'
p84
I00
sS'size_of_generation'
p85
I10
sS'dadi_pts'
p86
(lp87
g24
(g18
(S'i8'
I0
I1
tRp88
(I3
S'<'
NNNI-1
I-1
I0
tbS'\x14\x00\x00\x00\x00\x00\x00\x00'
tRp89
ag24
(g88
S'\x1e\x00\x00\x00\x00\x00\x00\x00'
tRp90
ag24
(g88
S'(\x00\x00\x00\x00\x00\x00\x00'
tRp91
asS'gen_time_units'
p92
F1
sg4
NsS'optimize_name'
p93
S'optimize_powell'
p94
sS'frac_of_mutated_models'
p95
F0.29999999999999999
sS'initial_structure'
p96
g15
(g16
(I0
tS'b'
tRp97
(I1
(I1
tg18
(S'i8'
I0
I1
tRp98
(I3
S'<'
NNNI-1
I-1
I0
tbI00
S'\x03\x00\x00\x00\x00\x00\x00\x00'
tbsg44
I01
sS'std'
p99
NsS'processes'
p100
I10
sS'split_2_lim'
p101
NsS'frac_of_crossed_models'
p102
F0.29999999999999999
sS'max_T'
p103
F5
sS'pop_labels'
p104
(lp105
S'pop 0'
p106
asS'model_func_file'
p107
NsS'distribution'
p108
S'normal'
p109
sS'gen_time'
p110
NsS'min_T'
p111
F0
sS'max_M'
p112
F10
sS'mutation_strength'
p113
F0.20000000000000001
sS'min_M'
p114
F0
sS'min_N'
p115
F0.001
sS'ls_epsilon'
p116
F0.001
sS'ls_flush_delay'
p117
F0.5
sS'ls_maxiter'
p118
NsS'time_for_print'
p119
I1
sg39
I1
sS'output_dir'
p120
S'/mnt/ssd1/enoskova/simulations/1_simbot/results/gadma/out_0_sudden_only'
p121
sS'epsilon'
p122
F0.01
sS'test'
p123
I00
sS'theta'
p124
F2
sS'model_func'
p125
NsS'ns'
p126
g15
(g16
(I0
tS'b'
tRp127
(I1
(I1
tg98
I00
S'\x14\x00\x00\x00\x00\x00\x00\x00'
tbsS'hc_mutation_rate'
p128
NsS'hc_stop_iter'
p129
NsS'moments_scenario'
p130
I01
sS'draw_iter'
p131
I0
sS'input_file'
p132
S'/mnt/ssd1/enoskova/simulations/1_simbot/simulated_data/00.fs'
p133
sS'random_N_A'
p134
I01
sS'split_1_lim'
p135
NsS'ls_gtol'
p136
F1.0000000000000001e-05
sS'p_ids'
p137
NsS'hc_const_for_mutation_rate'
p138
NsS'multinom_cross'
p139
I00
sS'moments_available'
p140
I01
sS'ls_verbose'
p141
Nsg66
NsS'stop_iter'
p142
I100
sS'const_for_mut_rate'
p143
F1.02
sS'input_data'
p144
cdadi.Spectrum_mod
Spectrum_unpickler
p145
(g15
(g16
(I0
tS'b'
tRp146
(I1
(I21
tg18
(S'f8'
I0
I1
tRp147
(I3
S'<'
NNNI-1
I-1
I0
tbI00
S"\x06\xf3\x0cX\xd0\xaa\xe1@\x8b9\x95\xe8\xeel\xc2@9\xfd\xa6r\x82&\xac@\x0eg\xe2\x151'\xa4@l\xa5\x83\xb5(\xb5\xa1@\xe2g\x0c\xb8\xf6q\xa0@K\xfc\xfd\xff*\x00\x9f@\x8d\xae~/\xaeX\x9d@\xcb\xcf_\x11\r\xd3\x9b@\xfej\xf7\xc9Eg\x9a@\x84\x17\x9ao\x1b\x12\x99@\xb1x\xe8>\xae\xd1\x97@e\xc0]f\x96\xa4\x96@\xbd\xf0\x93F\xa2\x89\x95@WWXK\xc0\x7f\x94@$\x99M\x86\xf5\x85\x93@\xf2\x96\xa9\xb3X\x9b\x92@6,L'\x0f\xbf\x91@$>\xef\xbaJ\xf0\x90@\xd0\xb5\xdcUH.\x90@8\x97\xde5\to\xb5@"
tbg15
(g16
(I0
tS'b'
tRp148
(I1
(I21
tg18
(S'b1'
I0
I1
tRp149
(I3
S'|'
NNNI-1
I-1
I0
tbI00
S'\x01\x00\x00\x00\x00\x00\x00\x00\x00\x00\x00\x00\x00\x00\x00\x00\x00\x00\x00\x00\x01'
tbI00
g105
NtRp150
sS'mutation_rate'
p151
F0.20000000000000001
sS'matplotlib_available'
p152
I01
sS'code_iter'
p153
I0
sS'repeats'
p154
I50
sS'final_structure'
p155
g15
(g16
(I0
tS'b'
tRp156
(I1
(I1
tg98
I00
S'\x03\x00\x00\x00\x00\x00\x00\x00'
tbsS'silence'
p157
I01
sbsS'aic_score'
p158
g24
(g19
S'\xc0\xc6\x1bm\x9fhg@'
tRp159
sS'claic_eps'
p160
F1e-14
sS'dt_fac'
p161
F0.10000000000000001
sS'number_of_changes'
p162
g15
(g16
(I0
tS'b'
tRp163
(I1
(I5
tg19
I00
S'\x00\x00\x00\x00\x00\xc0Q@\x00\x00\x00\x00\x00\xc0R@\x00\x00\x00\x00\x00@R@\x00\x00\x00\x00\x00\x80R@\x00\x00\x00\x00\x00\xc0R@'
tbsba.