(lp1
(igadma.demographic_model
Demographic_model
p2
(dp3
S'lower_bound'
p4
(lp5
F0.001
aF0.001
aF0
aF0
asS'param_ids'
p6
c__builtin__
xrange
p7
(I0
I0
I1
tRp8
sS'sfs'
p9
cmoments.Spectrum_mod
Spectrum_unpickler
p10
(cnumpy.core.multiarray
_reconstruct
p11
(cnumpy
ndarray
p12
(I0
tS'b'
tRp13
(I1
(I21
tcnumpy
dtype
p14
(S'f8'
I0
I1
tRp15
(I3
S'<'
NNNI-1
I-1
I0
tbI00
S"\x85\xda\xe5\x02a\x99\xe1@\xab\x16\xd92\xd2s\xc2@\x19\x8e\xd4\x8d\xf5B\xac@\xc3\xb6\x91\xc9\xf33\xa4@\xc0P Q\x05\xba\xa1@\xe3\xce\xc7A\x07s\xa0@\xad\xa0\xc0H\x17\xfe\x9e@qM\xfc\x07\xd2S\x9d@.\xea\x14\xbe\x1a\xcc\x9b@\xe7\xed\x7fj\xaa^\x9a@0\xc4\xf4\x9c'\x08\x99@\xbeT\xa7\r\xa4\xc6\x97@Q\xc1\x19\x88\xae\x98\x96@\xa77m:\x0e}\x95@\n8\x07\x89\xabr\x94@\x9b\xa8oB\x86x\x93@\x9d\xf8:s\xb0\x8d\x92@\xa3\x06\x1c7K\xb1\x91@\xd5\x10\xb3\x94\x84\xe2\x90@\x1771\xf8\x95 \x90@?^\xf6z\xbfB\xb5@"
tbg11
(g12
(I0
tS'b'
tRp16
(I1
(I21
tg14
(S'b1'
I0
I1
tRp17
(I3
S'|'
NNNI-1
I-1
I0
tbI00
S'\x01\x00\x00\x00\x00\x00\x00\x00\x00\x00\x00\x00\x00\x00\x00\x00\x00\x00\x00\x00\x01'
tbI00
NNtRp18
sS'fitness_func_value'
p19
cnumpy.core.multiarray
scalar
p20
(g15
S'\xc0\xa9\xb4\x8c\xae)V@'
tRp21
sS'popt'
p22
(lp23
g20
(g15
S'\xd4\x1c\xc0\xb5.9\x85?'
tRp24
ag20
(g15
S'J\xfbc\xd5K\xe5\xef?'
tRp25
ag20
(g15
S'\rX4\xf6\xe5\x17u?'
tRp26
ag20
(g15
S'\xe5,\xf6]-\xd4\xa9?'
tRp27
asS'cur_structure'
p28
NsS'popt_len'
p29
I4
sS'claic_score'
p30
NsS'split_2_pos'
p31
NsS'info'
p32
S'cm'
p33
sS'upper_bound'
p34
(lp35
F100
aF100
aF5
aF5
asS'is_custom_model'
p36
I01
sS'split_1_pos'
p37
NsS'number_of_populations'
p38
I1
sS'params'
p39
(igadma.options
Options_storage
p40
(dp41
S'only_models'
p42
NsS'multinom_mutate'
p43
I00
sS'const_for_mut_strength'
p44
F1.01
sS'frac_of_old_models'
p45
F0.20000000000000001
sS'resume_dir'
p46
NsS'linked_snp'
p47
I01
sS'multinom'
p48
I01
sS'relative_params'
p49
I00
sS'max_N'
p50
F100
sS'fracs'
p51
(lp52
F0.20000000000000001
aF0.29999999999999999
aF0.29999999999999999
asS'pil_available'
p53
I01
sS'no_mig'
p54
I00
sS'size_of_generation'
p55
I10
sS'dadi_pts'
p56
(lp57
g20
(g14
(S'i8'
I0
I1
tRp58
(I3
S'<'
NNNI-1
I-1
I0
tbS'\x14\x00\x00\x00\x00\x00\x00\x00'
tRp59
ag20
(g58
S'\x1e\x00\x00\x00\x00\x00\x00\x00'
tRp60
ag20
(g58
S'(\x00\x00\x00\x00\x00\x00\x00'
tRp61
asS'gen_time_units'
p62
F1
sg4
g5
sS'optimize_name'
p63
S'optimize_log'
p64
sS'frac_of_mutated_models'
p65
F0.29999999999999999
sS'initial_structure'
p66
NsS'only_sudden'
p67
I00
sS'std'
p68
NsS'processes'
p69
I10
sS'split_2_lim'
p70
NsS'frac_of_crossed_models'
p71
F0.29999999999999999
sS'max_T'
p72
F5
sS'pop_labels'
p73
(lp74
S'pop 0'
p75
asS'boot_dir'
p76
NsS'model_func_file'
p77
S'/mnt/ssd1/enoskova/simulations/1_simbot/demographic_model.py'
p78
sS'distribution'
p79
S'normal'
p80
sS'gen_time'
p81
NsS'min_T'
p82
F0
sS'max_M'
p83
F10
sS'mutation_strength'
p84
F0.20000000000000001
sS'boots'
p85
NsS'min_M'
p86
F0
sS'min_N'
p87
F0.001
sS'ls_epsilon'
p88
F0.001
sS'ls_flush_delay'
p89
F0.5
sS'ls_maxiter'
p90
NsS'time_for_print'
p91
I1
sg38
I1
sS'output_dir'
p92
S'/mnt/ssd1/enoskova/simulations/1_simbot/results/gadma/out_0_custom_2'
p93
sS'epsilon'
p94
F0.01
sS'test'
p95
I00
sS'theta'
p96
F2
sS'model_func'
p97
cmodule
model_func
p98
sS'ns'
p99
g11
(g12
(I0
tS'b'
tRp100
(I1
(I1
tg14
(S'i8'
I0
I1
tRp101
(I3
S'<'
NNNI-1
I-1
I0
tbI00
S'\x14\x00\x00\x00\x00\x00\x00\x00'
tbsS'hc_mutation_rate'
p102
NsS'hc_stop_iter'
p103
NsS'moments_scenario'
p104
I01
sS'draw_iter'
p105
I0
sS'input_file'
p106
S'/mnt/ssd1/enoskova/simulations/1_simbot/simulated_data/00.fs'
p107
sS'random_N_A'
p108
I01
sS'split_1_lim'
p109
NsS'ls_gtol'
p110
F1.0000000000000001e-05
sS'p_ids'
p111
g11
(g12
(I0
tS'b'
tRp112
(I1
(I4
tg14
(S'S1'
I0
I1
tRp113
(I3
S'|'
NNNI1
I1
I0
tbI00
S'nntt'
tbsS'hc_const_for_mutation_rate'
p114
NsS'multinom_cross'
p115
I00
sS'moments_available'
p116
I01
sS'ls_verbose'
p117
Nsg34
g35
sS'stop_iter'
p118
I100
sS'const_for_mut_rate'
p119
F1.02
sS'input_data'
p120
cdadi.Spectrum_mod
Spectrum_unpickler
p121
(g11
(g12
(I0
tS'b'
tRp122
(I1
(I21
tg14
(S'f8'
I0
I1
tRp123
(I3
S'<'
NNNI-1
I-1
I0
tbI00
S"\x06\xf3\x0cX\xd0\xaa\xe1@\x8b9\x95\xe8\xeel\xc2@9\xfd\xa6r\x82&\xac@\x0eg\xe2\x151'\xa4@l\xa5\x83\xb5(\xb5\xa1@\xe2g\x0c\xb8\xf6q\xa0@K\xfc\xfd\xff*\x00\x9f@\x8d\xae~/\xaeX\x9d@\xcb\xcf_\x11\r\xd3\x9b@\xfej\xf7\xc9Eg\x9a@\x84\x17\x9ao\x1b\x12\x99@\xb1x\xe8>\xae\xd1\x97@e\xc0]f\x96\xa4\x96@\xbd\xf0\x93F\xa2\x89\x95@WWXK\xc0\x7f\x94@$\x99M\x86\xf5\x85\x93@\xf2\x96\xa9\xb3X\x9b\x92@6,L'\x0f\xbf\x91@$>\xef\xbaJ\xf0\x90@\xd0\xb5\xdcUH.\x90@8\x97\xde5\to\xb5@"
tbg11
(g12
(I0
tS'b'
tRp124
(I1
(I21
tg14
(S'b1'
I0
I1
tRp125
(I3
S'|'
NNNI-1
I-1
I0
tbI00
S'\x01\x00\x00\x00\x00\x00\x00\x00\x00\x00\x00\x00\x00\x00\x00\x00\x00\x00\x00\x00\x01'
tbI00
g74
NtRp126
sS'mutation_rate'
p127
F0.20000000000000001
sS'matplotlib_available'
p128
I01
sS'code_iter'
p129
I0
sS'repeats'
p130
I50
sS'final_structure'
p131
NsS'silence'
p132
I00
sbsS'optimal_theta'
p133
g20
(g15
S'\xdb!\xb2\xfd\x88u\xd3@'
tRp134
sS'aic_score'
p135
g20
(g15
S'\xc0\xa9\xb4\x8c\xae)g@'
tRp136
sS'claic_eps'
p137
NsS'dt_fac'
p138
F0.10000000000000001
sS'number_of_changes'
p139
g11
(g12
(I0
tS'b'
tRp140
(I1
(I4
tg15
I00
S'\x00\x00\x00\x00\x00\x80I@\x00\x00\x00\x00\x00\x80H@\x00\x00\x00\x00\x00\x80H@\x00\x00\x00\x00\x00\x00H@'
tbsba.