(lp1
(igadma.demographic_model
Demographic_model
p2
(dp3
S'lower_bound'
p4
(lp5
F0.001
aF0.001
aF0
aF0
asS'sfs'
p6
cmoments.Spectrum_mod
Spectrum_unpickler
p7
(cnumpy.core.multiarray
_reconstruct
p8
(cnumpy
ndarray
p9
(I0
tS'b'
tRp10
(I1
(I21
tcnumpy
dtype
p11
(S'f8'
I0
I1
tRp12
(I3
S'<'
NNNI-1
I-1
I0
tbI00
S"c\xe6\x82\x85\xe0MCA\xf7]\x05\xf6~\xeb\xbf@\xfa\xdcZ\xd9\xc9c\xb1@J^s:\x9b\x17\xa9@][\x812\x7f?\xa4@% '\xf1TW\xa1@*\xe5*&G\xce\x9e@\x11%J\x00J\t\x9c@W\xd0,Xl\xf5\x99@*]\xd2\xae\xa3W\x98@\xf3uIQ\x83\x0c\x97@Q\xcaKB\x80\xfd\x95@l\xea6.\x93\x1b\x95@H\xeah\x8cT\\\x94@-\xb1\xb6\xd6U\xb8\x93@Km\xee\xdd#*\x93@\xfbM\xab>\xa8\xad\x92@\xc0\x9b\t\xcb\xc2?\x92@\x86\x99t&\x05\xde\x91@p\xf0[\xfa\x83\x86\x91@\x8c\x93\xec-\x9aD\x03A"
tbg8
(g9
(I0
tS'b'
tRp13
(I1
(I21
tg11
(S'b1'
I0
I1
tRp14
(I3
S'|'
NNNI-1
I-1
I0
tbI00
S'\x01\x00\x00\x00\x00\x00\x00\x00\x00\x00\x00\x00\x00\x00\x00\x00\x00\x00\x00\x00\x01'
tbI00
NNtRp15
sS'is_custom_model'
p16
I01
sS'fitness_func_value'
p17
cnumpy.core.multiarray
scalar
p18
(g12
S'\xa0{\xee\x84\xf7\x91x@'
tRp19
sS'popt'
p20
(lp21
g18
(g12
S'\x87\xf5Qb\x1a\x9d#@'
tRp22
ag18
(g12
S'\xa3\x134\xb3\x02\xc3\xc4?'
tRp23
aF5
ag18
(g12
S'\xa4]\x7fg\xae\x02\xe3?'
tRp24
asS'cur_structure'
p25
NsS'popt_len'
p26
I4
sS'claic_score'
p27
NsS'split_2_pos'
p28
NsS'info'
p29
S'c'
sS'param_ids'
p30
c__builtin__
xrange
p31
(I0
I0
I1
tRp32
sS'upper_bound'
p33
(lp34
F100
aF100
aF5
aF5
asS'split_1_pos'
p35
NsS'number_of_populations'
p36
I1
sS'params'
p37
(igadma.options
Options_storage
p38
(dp39
S'only_models'
p40
NsS'multinom_mutate'
p41
I00
sS'const_for_mut_strength'
p42
F1.01
sS'frac_of_old_models'
p43
F0.20000000000000001
sS'resume_dir'
p44
NsS'linked_snp'
p45
I01
sS'multinom'
p46
I01
sS'relative_params'
p47
I00
sS'max_N'
p48
F100
sS'fracs'
p49
(lp50
F0.20000000000000001
aF0.29999999999999999
aF0.29999999999999999
asS'pil_available'
p51
I01
sS'no_mig'
p52
I00
sS'size_of_generation'
p53
I10
sS'dadi_pts'
p54
(lp55
g18
(g11
(S'i8'
I0
I1
tRp56
(I3
S'<'
NNNI-1
I-1
I0
tbS'\x14\x00\x00\x00\x00\x00\x00\x00'
tRp57
ag18
(g56
S'\x1e\x00\x00\x00\x00\x00\x00\x00'
tRp58
ag18
(g56
S'(\x00\x00\x00\x00\x00\x00\x00'
tRp59
asS'gen_time_units'
p60
F1
sg4
g5
sS'optimize_name'
p61
S'optimize_log'
p62
sS'frac_of_mutated_models'
p63
F0.29999999999999999
sS'initial_structure'
p64
NsS'only_sudden'
p65
I00
sS'std'
p66
NsS'processes'
p67
I10
sS'split_2_lim'
p68
NsS'frac_of_crossed_models'
p69
F0.29999999999999999
sS'max_T'
p70
F5
sS'pop_labels'
p71
(lp72
S'pop 0'
p73
asS'boot_dir'
p74
NsS'model_func_file'
p75
S'/mnt/ssd1/enoskova/simulations/1_simbot/demographic_model.py'
p76
sS'distribution'
p77
S'normal'
p78
sS'gen_time'
p79
NsS'min_T'
p80
F0
sS'max_M'
p81
F10
sS'mutation_strength'
p82
F0.20000000000000001
sS'boots'
p83
NsS'min_M'
p84
F0
sS'min_N'
p85
F0.001
sS'ls_epsilon'
p86
F0.001
sS'ls_flush_delay'
p87
F0.5
sS'ls_maxiter'
p88
NsS'time_for_print'
p89
I1
sg36
I1
sS'output_dir'
p90
S'/mnt/ssd1/enoskova/simulations/1_simbot/results/gadma/out_0_custom_triangular'
p91
sS'epsilon'
p92
F0.01
sS'test'
p93
I00
sS'theta'
p94
F2
sS'model_func'
p95
cmodule
model_func
p96
sS'ns'
p97
g8
(g9
(I0
tS'b'
tRp98
(I1
(I1
tg11
(S'i8'
I0
I1
tRp99
(I3
S'<'
NNNI-1
I-1
I0
tbI00
S'\x14\x00\x00\x00\x00\x00\x00\x00'
tbsS'hc_mutation_rate'
p100
NsS'hc_stop_iter'
p101
NsS'moments_scenario'
p102
I01
sS'draw_iter'
p103
I0
sS'input_file'
p104
S'/mnt/ssd1/enoskova/simulations/1_simbot/simulated_data/00.fs'
p105
sS'random_N_A'
p106
I01
sS'split_1_lim'
p107
NsS'ls_gtol'
p108
F1.0000000000000001e-05
sS'p_ids'
p109
g8
(g9
(I0
tS'b'
tRp110
(I1
(I4
tg11
(S'S1'
I0
I1
tRp111
(I3
S'|'
NNNI1
I1
I0
tbI00
S'nntt'
tbsS'hc_const_for_mutation_rate'
p112
NsS'multinom_cross'
p113
I00
sS'moments_available'
p114
I01
sS'ls_verbose'
p115
Nsg33
g34
sS'stop_iter'
p116
I100
sS'const_for_mut_rate'
p117
F1.02
sS'input_data'
p118
cdadi.Spectrum_mod
Spectrum_unpickler
p119
(g8
(g9
(I0
tS'b'
tRp120
(I1
(I21
tg11
(S'f8'
I0
I1
tRp121
(I3
S'<'
NNNI-1
I-1
I0
tbI00
S"\x06\xf3\x0cX\xd0\xaa\xe1@\x8b9\x95\xe8\xeel\xc2@9\xfd\xa6r\x82&\xac@\x0eg\xe2\x151'\xa4@l\xa5\x83\xb5(\xb5\xa1@\xe2g\x0c\xb8\xf6q\xa0@K\xfc\xfd\xff*\x00\x9f@\x8d\xae~/\xaeX\x9d@\xcb\xcf_\x11\r\xd3\x9b@\xfej\xf7\xc9Eg\x9a@\x84\x17\x9ao\x1b\x12\x99@\xb1x\xe8>\xae\xd1\x97@e\xc0]f\x96\xa4\x96@\xbd\xf0\x93F\xa2\x89\x95@WWXK\xc0\x7f\x94@$\x99M\x86\xf5\x85\x93@\xf2\x96\xa9\xb3X\x9b\x92@6,L'\x0f\xbf\x91@$>\xef\xbaJ\xf0\x90@\xd0\xb5\xdcUH.\x90@8\x97\xde5\to\xb5@"
tbg8
(g9
(I0
tS'b'
tRp122
(I1
(I21
tg11
(S'b1'
I0
I1
tRp123
(I3
S'|'
NNNI-1
I-1
I0
tbI00
S'\x01\x00\x00\x00\x00\x00\x00\x00\x00\x00\x00\x00\x00\x00\x00\x00\x00\x00\x00\x00\x01'
tbI00
g72
NtRp124
sS'mutation_rate'
p125
F0.20000000000000001
sS'matplotlib_available'
p126
I01
sS'code_iter'
p127
I0
sS'repeats'
p128
I50
sS'final_structure'
p129
NsS'silence'
p130
I00
sbsS'optimal_theta'
p131
g18
(g12
S"'\xf3\xcb\xc4\xf9d\xe6@"
tRp132
sS'aic_score'
p133
g18
(g12
S'\xa0{\xee\x84\xf7\xd1\x88@'
tRp134
sS'claic_eps'
p135
NsS'dt_fac'
p136
F0.10000000000000001
sS'number_of_changes'
p137
g8
(g9
(I0
tS'b'
tRp138
(I1
(I4
tg12
I00
S'\x00\x00\x00\x00\x00\x00A@\x00\x00\x00\x00\x00\x00B@\x00\x00\x00\x00\x00\x00B@\x00\x00\x00\x00\x00\x80A@'
tbsba.