(lp1
(igadma.demographic_model
Demographic_model
p2
(dp3
S'lower_bound'
p4
(lp5
F0.001
aF0.001
aF0
aF0
asS'param_ids'
p6
(lp7
(I0
I0
tp8
a(I1
I0
tp9
a(I1
I1
tp10
a(I2
I0
tp11
a(I2
I1
tp12
asS'sfs'
p13
cmoments.Spectrum_mod
Spectrum_unpickler
p14
(cnumpy.core.multiarray
_reconstruct
p15
(cnumpy
ndarray
p16
(I0
tS'b'
tRp17
(I1
(I21
tcnumpy
dtype
p18
(S'f8'
I0
I1
tRp19
(I3
S'<'
NNNI-1
I-1
I0
tbI00
S'{\x0e\xd1\xe9Nr\xe2@\x90\r\x1e\x02+m\xc2@h\xb7\x02\xa0\x0b\x1e\xac@\x81\xcf1\xec#8\xa4@wls\x8b\x90\xc4\xa1@k\xfd\x8b\xda\x07y\xa0@\xdc\x1aO\x814\x00\x9f@\x93O c&P\x9d@G\xba\xc2\xb1\x84\xc6\x9b@/\xdb6\x96\xc8Y\x9a@y\xac\xec\xf3}\x05\x99@,\x11\xc3\x1d\xf1\xc6\x97@z\xdb=x2\x9c\x96@2\xb5\xe1\n\xbc\x83\x95@\xf3\x00\xb1eI|\x94@\x9d]Rg\xc2\x84\x93@\xd2\xdd\x92\xa0.\x9c\x92@^\xe3\xdfL\xad\xc1\x91@dv\xaa\xfbo\xf4\x90@\xe7K\xdb\xe7\xb63\x90@R\x14&\xd0e\xf9\xb5@'
tbg15
(g16
(I0
tS'b'
tRp20
(I1
(I21
tg18
(S'b1'
I0
I1
tRp21
(I3
S'|'
NNNI-1
I-1
I0
tbI00
S'\x01\x00\x00\x00\x00\x00\x00\x00\x00\x00\x00\x00\x00\x00\x00\x00\x00\x00\x00\x00\x01'
tbI00
NNtRp22
sS'fitness_func_value'
p23
cnumpy.core.multiarray
scalar
p24
(g19
S"\x00\x9e\x7fu\x06'V@"
tRp25
sS'periods'
p26
(lp27
ccopy_reg
_reconstructor
p28
(cgadma.demographic_model
Period
p29
c__builtin__
object
p30
NtRp31
(dp32
S'sizes_of_populations'
p33
(lp34
g24
(g19
S'\xce6\x81\x93\x9e\x97\xc3@'
tRp35
asS'is_first_period'
p36
I01
sS'time'
p37
g24
(g19
S'\x00\x00\x00\x00\x00\x00\x00\x00'
tRp38
sS'number_of_populations'
p39
I1
sS'migration_rates'
p40
NsS'number_of_parameters'
p41
I1
sS'is_split_of_population'
p42
I00
sS'growth_types'
p43
NsS'only_sudden'
p44
I01
sbag28
(g29
g30
NtRp45
(dp46
g33
(lp47
g24
(g19
S'~\xa1\xc8\xce\n\xebq@'
tRp48
asg36
I00
sg37
g24
(g19
S'(R\x96\xbeB|b@'
tRp49
sg39
I1
sg40
Nsg41
I2
sg42
I00
sg43
(lp50
I0
asg44
I01
sbag28
(g29
g30
NtRp51
(dp52
g33
(lp53
g24
(g19
S'\xe1\xa0eWk\x0c\xc4@'
tRp54
asg36
I00
sg37
g24
(g19
S'A\xef\xc0\xd9\xff\xdb}@'
tRp55
sg39
I1
sg40
Nsg41
I2
sg42
I00
sg43
(lp56
I0
asg44
I01
sbasS'number_of_periods'
p57
I3
sS'cur_structure'
p58
(lp59
I3
asS'is_custom_model'
p60
I00
sS'claic_score'
p61
NsS'split_2_pos'
p62
NsS'info'
p63
S'cm'
p64
sS'upper_bound'
p65
(lp66
F100
aF100
aF5
aF5
asS'split_1_pos'
p67
Nsg39
I1
sS'params'
p68
(igadma.options
Options_storage
p69
(dp70
S'only_models'
p71
NsS'multinom_mutate'
p72
I00
sS'const_for_mut_strength'
p73
F1.01
sS'frac_of_old_models'
p74
F0.20000000000000001
sS'resume_dir'
p75
NsS'linked_snp'
p76
I01
sS'multinom'
p77
I00
sS'relative_params'
p78
I00
sS'min_T'
p79
F0
sS'fracs'
p80
(lp81
F0.20000000000000001
aF0.29999999999999999
aF0.29999999999999999
asS'pil_available'
p82
I01
sS'no_mig'
p83
I00
sS'size_of_generation'
p84
I10
sS'mutation_strength'
p85
F0.20000000000000001
sS'gen_time_units'
p86
F1
sS'epsilon'
p87
F0.01
sS'optimize_name'
p88
S'optimize_powell'
p89
sS'frac_of_mutated_models'
p90
F0.29999999999999999
sS'initial_structure'
p91
g15
(g16
(I0
tS'b'
tRp92
(I1
(I1
tg18
(S'i8'
I0
I1
tRp93
(I3
S'<'
NNNI-1
I-1
I0
tbI00
S'\x03\x00\x00\x00\x00\x00\x00\x00'
tbsg44
I01
sS'std'
p94
NsS'processes'
p95
I10
sS'split_2_lim'
p96
NsS'frac_of_crossed_models'
p97
F0.29999999999999999
sS'min_N'
p98
F0.001
sS'pop_labels'
p99
(lp100
S'pop 0'
p101
asS'boot_dir'
p102
NsS'model_func_file'
p103
NsS'distribution'
p104
S'normal'
p105
sS'gen_time'
p106
NsS'max_N'
p107
F100
sS'max_M'
p108
F10
sS'dadi_pts'
p109
(lp110
g24
(g18
(S'i8'
I0
I1
tRp111
(I3
S'<'
NNNI-1
I-1
I0
tbS'\x14\x00\x00\x00\x00\x00\x00\x00'
tRp112
ag24
(g111
S'\x1e\x00\x00\x00\x00\x00\x00\x00'
tRp113
ag24
(g111
S'(\x00\x00\x00\x00\x00\x00\x00'
tRp114
asS'boots'
p115
NsS'min_M'
p116
F0
sS'max_T'
p117
F5
sS'ls_epsilon'
p118
F0.001
sS'ls_flush_delay'
p119
F0.5
sS'ls_maxiter'
p120
NsS'time_for_print'
p121
I1
sg39
I1
sS'output_dir'
p122
S'/mnt/ssd1/enoskova/simulations/1_simbot/results/gadma/out_0_sudden_only'
p123
sg4
NsS'test'
p124
I00
sS'theta'
p125
F2
sS'model_func'
p126
NsS'ns'
p127
g15
(g16
(I0
tS'b'
tRp128
(I1
(I1
tg93
I00
S'\x14\x00\x00\x00\x00\x00\x00\x00'
tbsS'hc_mutation_rate'
p129
NsS'hc_stop_iter'
p130
NsS'moments_scenario'
p131
I01
sS'draw_iter'
p132
I0
sS'input_file'
p133
S'/mnt/ssd1/enoskova/simulations/1_simbot/simulated_data/00.fs'
p134
sS'random_N_A'
p135
I01
sS'split_1_lim'
p136
NsS'ls_gtol'
p137
F1.0000000000000001e-05
sS'p_ids'
p138
NsS'hc_const_for_mutation_rate'
p139
NsS'multinom_cross'
p140
I00
sS'moments_available'
p141
I01
sS'ls_verbose'
p142
Nsg65
NsS'stop_iter'
p143
I100
sS'const_for_mut_rate'
p144
F1.02
sS'input_data'
p145
cdadi.Spectrum_mod
Spectrum_unpickler
p146
(g15
(g16
(I0
tS'b'
tRp147
(I1
(I21
tg18
(S'f8'
I0
I1
tRp148
(I3
S'<'
NNNI-1
I-1
I0
tbI00
S"\x06\xf3\x0cX\xd0\xaa\xe1@\x8b9\x95\xe8\xeel\xc2@9\xfd\xa6r\x82&\xac@\x0eg\xe2\x151'\xa4@l\xa5\x83\xb5(\xb5\xa1@\xe2g\x0c\xb8\xf6q\xa0@K\xfc\xfd\xff*\x00\x9f@\x8d\xae~/\xaeX\x9d@\xcb\xcf_\x11\r\xd3\x9b@\xfej\xf7\xc9Eg\x9a@\x84\x17\x9ao\x1b\x12\x99@\xb1x\xe8>\xae\xd1\x97@e\xc0]f\x96\xa4\x96@\xbd\xf0\x93F\xa2\x89\x95@WWXK\xc0\x7f\x94@$\x99M\x86\xf5\x85\x93@\xf2\x96\xa9\xb3X\x9b\x92@6,L'\x0f\xbf\x91@$>\xef\xbaJ\xf0\x90@\xd0\xb5\xdcUH.\x90@8\x97\xde5\to\xb5@"
tbg15
(g16
(I0
tS'b'
tRp149
(I1
(I21
tg18
(S'b1'
I0
I1
tRp150
(I3
S'|'
NNNI-1
I-1
I0
tbI00
S'\x01\x00\x00\x00\x00\x00\x00\x00\x00\x00\x00\x00\x00\x00\x00\x00\x00\x00\x00\x00\x01'
tbI00
g100
NtRp151
sS'mutation_rate'
p152
F0.20000000000000001
sS'matplotlib_available'
p153
I01
sS'code_iter'
p154
I0
sS'repeats'
p155
I50
sS'final_structure'
p156
g15
(g16
(I0
tS'b'
tRp157
(I1
(I1
tg93
I00
S'\x03\x00\x00\x00\x00\x00\x00\x00'
tbsS'silence'
p158
I00
sbsS'aic_score'
p159
g24
(g19
S'\x00\x9e\x7fu\x06gg@'
tRp160
sS'claic_eps'
p161
NsS'dt_fac'
p162
F0.10000000000000001
sS'number_of_changes'
p163
g15
(g16
(I0
tS'b'
tRp164
(I1
(I5
tg19
I00
S'\x00\x00\x00\x00\x00\x80H@\x00\x00\x00\x00\x00\x80H@\x00\x00\x00\x00\x00\x00H@\x00\x00\x00\x00\x00\x80H@\x00\x00\x00\x00\x00\x80H@'
tbsba.