(lp1
(igadma.demographic_model
Demographic_model
p2
(dp3
S'lower_bound'
p4
(lp5
F0.001
aF0.001
aF0
aF0
asS'param_ids'
p6
c__builtin__
xrange
p7
(I0
I0
I1
tRp8
sS'sfs'
p9
cmoments.Spectrum_mod
Spectrum_unpickler
p10
(cnumpy.core.multiarray
_reconstruct
p11
(cnumpy
ndarray
p12
(I0
tS'b'
tRp13
(I1
(I21
tcnumpy
dtype
p14
(S'f8'
I0
I1
tRp15
(I3
S'<'
NNNI-1
I-1
I0
tbI00
S'\xf46\xed\xc1j\x07@A\xb0\t8v\xa3p\xc2@6\xab\xb2\ra\x1d\xad@5\xfaXoY\xcd\xa5@\x1b\xe2\xd19a%\xa2@\xf2y\x82b\x94\xe7\x9f@O\x01\xebs\xc7\xfa\x9c@%\xbeO\xf0\xe8\xe3\x9a@\xb7\xbf\xcd`\xbfR\x99@\xdb\x8a/*\xb9\x1a\x98@\xc1H[x\x18!\x97@\xe8V2\xe3\xd8T\x96@Y\xff\x9b#\xa2\xaa\x95@yl\xd3\x91\x99\x1a\x95@\x01\x12\x8b\xff"\x9f\x94@1V\xb39!4\x94@\x08\x83\xf0Y~\xd6\x93@&C\xc6U\xde\x83\x93@\x1e\xc9\xf1]k:\x93@\xbd\x9ar\x8b\xb2\xf8\x92@\x9aOs?\xea\xe0$A'
tbg11
(g12
(I0
tS'b'
tRp16
(I1
(I21
tg14
(S'b1'
I0
I1
tRp17
(I3
S'|'
NNNI-1
I-1
I0
tbI00
S'\x01\x00\x00\x00\x00\x00\x00\x00\x00\x00\x00\x00\x00\x00\x00\x00\x00\x00\x00\x00\x01'
tbI00
NNtRp18
sS'fitness_func_value'
p19
cnumpy.core.multiarray
scalar
p20
(g15
S' T\xa08g\xf4d@'
tRp21
sS'popt'
p22
(lp23
g20
(g15
S'1\xc4\x91B\x9c\xe6\x7f?'
tRp24
ag20
(g15
S'\x03\x00\x00\x00\x00\x00Y@'
tRp25
ag20
(g15
S'[\xb9\xceQT\xc6\xa2?'
tRp26
ag20
(g15
S'\xc4\xcfJNIl:?'
tRp27
asS'cur_structure'
p28
NsS'is_custom_model'
p29
I01
sS'claic_score'
p30
NsS'split_2_pos'
p31
NsS'info'
p32
S'cmmmm'
p33
sS'popt_len'
p34
I4
sS'upper_bound'
p35
(lp36
F100
aF100
aF5
aF5
asS'split_1_pos'
p37
NsS'number_of_populations'
p38
I1
sS'params'
p39
(igadma.options
Options_storage
p40
(dp41
S'only_models'
p42
NsS'multinom_mutate'
p43
I00
sS'const_for_mut_strength'
p44
F1.01
sS'frac_of_old_models'
p45
F0.20000000000000001
sS'resume_dir'
p46
NsS'linked_snp'
p47
I01
sS'multinom'
p48
I01
sS'relative_params'
p49
I00
sS'min_T'
p50
F0
sS'fracs'
p51
(lp52
F0.20000000000000001
aF0.29999999999999999
aF0.29999999999999999
asS'pil_available'
p53
I01
sS'no_mig'
p54
I00
sS'size_of_generation'
p55
I10
sS'mutation_strength'
p56
F0.20000000000000001
sS'gen_time_units'
p57
F1
sS'epsilon'
p58
F0.01
sS'optimize_name'
p59
S'optimize_log'
p60
sS'frac_of_mutated_models'
p61
F0.29999999999999999
sS'initial_structure'
p62
NsS'only_sudden'
p63
I00
sS'std'
p64
NsS'processes'
p65
I10
sS'split_2_lim'
p66
NsS'frac_of_crossed_models'
p67
F0.29999999999999999
sS'min_N'
p68
F0.001
sS'pop_labels'
p69
(lp70
S'pop 0'
p71
asS'boot_dir'
p72
NsS'model_func_file'
p73
S'/mnt/ssd1/enoskova/simulations/1_simbot/demographic_model.py'
p74
sS'distribution'
p75
S'normal'
p76
sS'gen_time'
p77
NsS'max_N'
p78
F100
sS'max_M'
p79
F10
sS'dadi_pts'
p80
(lp81
g20
(g14
(S'i8'
I0
I1
tRp82
(I3
S'<'
NNNI-1
I-1
I0
tbS'\x14\x00\x00\x00\x00\x00\x00\x00'
tRp83
ag20
(g82
S'\x1e\x00\x00\x00\x00\x00\x00\x00'
tRp84
ag20
(g82
S'(\x00\x00\x00\x00\x00\x00\x00'
tRp85
asS'boots'
p86
NsS'min_M'
p87
F0
sS'max_T'
p88
F5
sS'ls_epsilon'
p89
F0.001
sS'ls_flush_delay'
p90
F0.5
sS'ls_maxiter'
p91
NsS'time_for_print'
p92
I1
sg38
I1
sS'output_dir'
p93
S'/mnt/ssd1/enoskova/simulations/1_simbot/results/gadma/out_0_custom_2'
p94
sg4
g5
sS'test'
p95
I00
sS'theta'
p96
F2
sS'model_func'
p97
cmodule
model_func
p98
sS'ns'
p99
g11
(g12
(I0
tS'b'
tRp100
(I1
(I1
tg14
(S'i8'
I0
I1
tRp101
(I3
S'<'
NNNI-1
I-1
I0
tbI00
S'\x14\x00\x00\x00\x00\x00\x00\x00'
tbsS'hc_mutation_rate'
p102
NsS'hc_stop_iter'
p103
NsS'moments_scenario'
p104
I01
sS'draw_iter'
p105
I0
sS'input_file'
p106
S'/mnt/ssd1/enoskova/simulations/1_simbot/simulated_data/00.fs'
p107
sS'random_N_A'
p108
I01
sS'split_1_lim'
p109
NsS'ls_gtol'
p110
F1.0000000000000001e-05
sS'p_ids'
p111
g11
(g12
(I0
tS'b'
tRp112
(I1
(I4
tg14
(S'S1'
I0
I1
tRp113
(I3
S'|'
NNNI1
I1
I0
tbI00
S'nntt'
tbsS'hc_const_for_mutation_rate'
p114
NsS'multinom_cross'
p115
I00
sS'moments_available'
p116
I01
sS'ls_verbose'
p117
Nsg35
g36
sS'stop_iter'
p118
I100
sS'const_for_mut_rate'
p119
F1.02
sS'input_data'
p120
cdadi.Spectrum_mod
Spectrum_unpickler
p121
(g11
(g12
(I0
tS'b'
tRp122
(I1
(I21
tg14
(S'f8'
I0
I1
tRp123
(I3
S'<'
NNNI-1
I-1
I0
tbI00
S"\x06\xf3\x0cX\xd0\xaa\xe1@\x8b9\x95\xe8\xeel\xc2@9\xfd\xa6r\x82&\xac@\x0eg\xe2\x151'\xa4@l\xa5\x83\xb5(\xb5\xa1@\xe2g\x0c\xb8\xf6q\xa0@K\xfc\xfd\xff*\x00\x9f@\x8d\xae~/\xaeX\x9d@\xcb\xcf_\x11\r\xd3\x9b@\xfej\xf7\xc9Eg\x9a@\x84\x17\x9ao\x1b\x12\x99@\xb1x\xe8>\xae\xd1\x97@e\xc0]f\x96\xa4\x96@\xbd\xf0\x93F\xa2\x89\x95@WWXK\xc0\x7f\x94@$\x99M\x86\xf5\x85\x93@\xf2\x96\xa9\xb3X\x9b\x92@6,L'\x0f\xbf\x91@$>\xef\xbaJ\xf0\x90@\xd0\xb5\xdcUH.\x90@8\x97\xde5\to\xb5@"
tbg11
(g12
(I0
tS'b'
tRp124
(I1
(I21
tg14
(S'b1'
I0
I1
tRp125
(I3
S'|'
NNNI-1
I-1
I0
tbI00
S'\x01\x00\x00\x00\x00\x00\x00\x00\x00\x00\x00\x00\x00\x00\x00\x00\x00\x00\x00\x00\x01'
tbI00
g70
NtRp126
sS'mutation_rate'
p127
F0.20000000000000001
sS'matplotlib_available'
p128
I01
sS'code_iter'
p129
I0
sS'repeats'
p130
I50
sS'final_structure'
p131
NsS'silence'
p132
I00
sbsS'optimal_theta'
p133
g20
(g15
S'+\xa4\t\xf8&\x01&A'
tRp134
sS'aic_score'
p135
g20
(g15
S' T\xa08gtu@'
tRp136
sS'claic_eps'
p137
NsS'dt_fac'
p138
F0.10000000000000001
sS'number_of_changes'
p139
g11
(g12
(I0
tS'b'
tRp140
(I1
(I4
tg15
I00
S'\x00\x00\x00\x00\x00\x80F@\x00\x00\x00\x00\x00\x80E@\x00\x00\x00\x00\x00\x00G@\x00\x00\x00\x00\x00\x00F@'
tbsba.