(lp1
(igadma.demographic_model
Demographic_model
p2
(dp3
S'lower_bound'
p4
(lp5
F0.001
aF0.001
aF0
aF0
asS'sfs'
p6
cmoments.Spectrum_mod
Spectrum_unpickler
p7
(cnumpy.core.multiarray
_reconstruct
p8
(cnumpy
ndarray
p9
(I0
tS'b'
tRp10
(I1
(I21
tcnumpy
dtype
p11
(S'f8'
I0
I1
tRp12
(I3
S'<'
NNNI-1
I-1
I0
tbI00
S"\x96\xf6O\xb4G2!Aa'&\xf5}\xed\xbf@[\xce\x16n\xbcd\xb1@O\xa1\x1f\xfd\xbf\x18\xa9@\x1bu\x11\xaa9@\xa4@\xf3 3\x8f\xc7W\xa1@\xe9I(!\xbf\xce\x9e@Q\x81\nih\t\x9c@.\xbeZ|=\xf5\x99@\x0f\\+\xc2/W\x98@JB\xea\x11\xd0\x0b\x97@\x01\xc8k\xdd\x91\xfc\x95@\xb7t\xe6\xc5l\x1a\x95@\xfb\xe0\xbb\x89\xf8Z\x94@3B\x9f\x1e\xc6\xb6\x93@\xdckz\xf4a(\x93@v\xc3<_\xb5\xab\x92@\xf4)p\xf9\x9f=\x92@r\xf9F;\xb3\xdb\x91@J^\x11\xac\x03\x84\x91@r\x1b\x18\xeec\xb3\xff@"
tbg8
(g9
(I0
tS'b'
tRp13
(I1
(I21
tg11
(S'b1'
I0
I1
tRp14
(I3
S'|'
NNNI-1
I-1
I0
tbI00
S'\x01\x00\x00\x00\x00\x00\x00\x00\x00\x00\x00\x00\x00\x00\x00\x00\x00\x00\x00\x00\x01'
tbI00
NNtRp15
sS'is_custom_model'
p16
I01
sS'fitness_func_value'
p17
cnumpy.core.multiarray
scalar
p18
(g12
S'p\x98\xd0\x14\xe6\x92x@'
tRp19
sS'popt'
p20
(lp21
g18
(g12
S'\xa9]\xee\xd1\x96\x1c:@'
tRp22
ag18
(g12
S'\xe4/b\xba8w\xab?'
tRp23
ag18
(g12
S'\xf5\x0b r\x07;\x16?'
tRp24
ag18
(g12
S'\xe0\xa1\xf4\x83\x1eF\xc6?'
tRp25
asS'cur_structure'
p26
NsS'popt_len'
p27
I4
sS'claic_score'
p28
NsS'split_2_pos'
p29
NsS'info'
p30
S'cmm'
p31
sS'param_ids'
p32
c__builtin__
xrange
p33
(I0
I0
I1
tRp34
sS'upper_bound'
p35
(lp36
F100
aF100
aF5
aF5
asS'split_1_pos'
p37
NsS'number_of_populations'
p38
I1
sS'params'
p39
(igadma.options
Options_storage
p40
(dp41
S'only_models'
p42
NsS'multinom_mutate'
p43
I00
sS'const_for_mut_strength'
p44
F1.01
sS'frac_of_old_models'
p45
F0.20000000000000001
sS'resume_dir'
p46
NsS'linked_snp'
p47
I01
sS'multinom'
p48
I01
sS'relative_params'
p49
I00
sS'max_N'
p50
F100
sS'fracs'
p51
(lp52
F0.20000000000000001
aF0.29999999999999999
aF0.29999999999999999
asS'pil_available'
p53
I01
sS'no_mig'
p54
I00
sS'size_of_generation'
p55
I10
sS'dadi_pts'
p56
(lp57
g18
(g11
(S'i8'
I0
I1
tRp58
(I3
S'<'
NNNI-1
I-1
I0
tbS'\x14\x00\x00\x00\x00\x00\x00\x00'
tRp59
ag18
(g58
S'\x1e\x00\x00\x00\x00\x00\x00\x00'
tRp60
ag18
(g58
S'(\x00\x00\x00\x00\x00\x00\x00'
tRp61
asS'gen_time_units'
p62
F1
sg4
g5
sS'optimize_name'
p63
S'optimize_log'
p64
sS'frac_of_mutated_models'
p65
F0.29999999999999999
sS'initial_structure'
p66
NsS'only_sudden'
p67
I00
sS'std'
p68
NsS'processes'
p69
I10
sS'split_2_lim'
p70
NsS'frac_of_crossed_models'
p71
F0.29999999999999999
sS'max_T'
p72
F5
sS'pop_labels'
p73
(lp74
S'pop 0'
p75
asS'boot_dir'
p76
NsS'model_func_file'
p77
S'/mnt/ssd1/enoskova/simulations/1_simbot/demographic_model.py'
p78
sS'distribution'
p79
S'normal'
p80
sS'gen_time'
p81
NsS'min_T'
p82
F0
sS'max_M'
p83
F10
sS'mutation_strength'
p84
F0.20000000000000001
sS'boots'
p85
NsS'min_M'
p86
F0
sS'min_N'
p87
F0.001
sS'ls_epsilon'
p88
F0.001
sS'ls_flush_delay'
p89
F0.5
sS'ls_maxiter'
p90
NsS'time_for_print'
p91
I1
sg38
I1
sS'output_dir'
p92
S'/mnt/ssd1/enoskova/simulations/1_simbot/results/gadma/out_0_custom_2'
p93
sS'epsilon'
p94
F0.01
sS'test'
p95
I00
sS'theta'
p96
F2
sS'model_func'
p97
cmodule
model_func
p98
sS'ns'
p99
g8
(g9
(I0
tS'b'
tRp100
(I1
(I1
tg11
(S'i8'
I0
I1
tRp101
(I3
S'<'
NNNI-1
I-1
I0
tbI00
S'\x14\x00\x00\x00\x00\x00\x00\x00'
tbsS'hc_mutation_rate'
p102
NsS'hc_stop_iter'
p103
NsS'moments_scenario'
p104
I01
sS'draw_iter'
p105
I0
sS'input_file'
p106
S'/mnt/ssd1/enoskova/simulations/1_simbot/simulated_data/00.fs'
p107
sS'random_N_A'
p108
I01
sS'split_1_lim'
p109
NsS'ls_gtol'
p110
F1.0000000000000001e-05
sS'p_ids'
p111
g8
(g9
(I0
tS'b'
tRp112
(I1
(I4
tg11
(S'S1'
I0
I1
tRp113
(I3
S'|'
NNNI1
I1
I0
tbI00
S'nntt'
tbsS'hc_const_for_mutation_rate'
p114
NsS'multinom_cross'
p115
I00
sS'moments_available'
p116
I01
sS'ls_verbose'
p117
Nsg35
g36
sS'stop_iter'
p118
I100
sS'const_for_mut_rate'
p119
F1.02
sS'input_data'
p120
cdadi.Spectrum_mod
Spectrum_unpickler
p121
(g8
(g9
(I0
tS'b'
tRp122
(I1
(I21
tg11
(S'f8'
I0
I1
tRp123
(I3
S'<'
NNNI-1
I-1
I0
tbI00
S"\x06\xf3\x0cX\xd0\xaa\xe1@\x8b9\x95\xe8\xeel\xc2@9\xfd\xa6r\x82&\xac@\x0eg\xe2\x151'\xa4@l\xa5\x83\xb5(\xb5\xa1@\xe2g\x0c\xb8\xf6q\xa0@K\xfc\xfd\xff*\x00\x9f@\x8d\xae~/\xaeX\x9d@\xcb\xcf_\x11\r\xd3\x9b@\xfej\xf7\xc9Eg\x9a@\x84\x17\x9ao\x1b\x12\x99@\xb1x\xe8>\xae\xd1\x97@e\xc0]f\x96\xa4\x96@\xbd\xf0\x93F\xa2\x89\x95@WWXK\xc0\x7f\x94@$\x99M\x86\xf5\x85\x93@\xf2\x96\xa9\xb3X\x9b\x92@6,L'\x0f\xbf\x91@$>\xef\xbaJ\xf0\x90@\xd0\xb5\xdcUH.\x90@8\x97\xde5\to\xb5@"
tbg8
(g9
(I0
tS'b'
tRp124
(I1
(I21
tg11
(S'b1'
I0
I1
tRp125
(I3
S'|'
NNNI-1
I-1
I0
tbI00
S'\x01\x00\x00\x00\x00\x00\x00\x00\x00\x00\x00\x00\x00\x00\x00\x00\x00\x00\x00\x00\x01'
tbI00
g74
NtRp126
sS'mutation_rate'
p127
F0.20000000000000001
sS'matplotlib_available'
p128
I01
sS'code_iter'
p129
I0
sS'repeats'
p130
I50
sS'final_structure'
p131
NsS'silence'
p132
I00
sbsS'optimal_theta'
p133
g18
(g12
S'\xea\x7f\x08_\xd2\xee\x00A'
tRp134
sS'aic_score'
p135
g18
(g12
S'p\x98\xd0\x14\xe6\xd2\x88@'
tRp136
sS'claic_eps'
p137
NsS'dt_fac'
p138
F0.10000000000000001
sS'number_of_changes'
p139
g8
(g9
(I0
tS'b'
tRp140
(I1
(I4
tg12
I00
S'\x00\x00\x00\x00\x00\x00:@\x00\x00\x00\x00\x00\x009@\x00\x00\x00\x00\x00\x00;@\x00\x00\x00\x00\x00\x009@'
tbsba.